ARM GAS  /tmp/ccZ9tIjc.s 			page 1


   1              		.cpu cortex-m3
   2              		.eabi_attribute 20, 1
   3              		.eabi_attribute 21, 1
   4              		.eabi_attribute 23, 3
   5              		.eabi_attribute 24, 1
   6              		.eabi_attribute 25, 1
   7              		.eabi_attribute 26, 1
   8              		.eabi_attribute 30, 1
   9              		.eabi_attribute 34, 1
  10              		.eabi_attribute 18, 4
  11              		.file	"eeprom.c"
  12              		.text
  13              	.Ltext0:
  14              		.cfi_sections	.debug_frame
  15              		.section	.text.EE_VerifyPageFullyErased,"ax",%progbits
  16              		.align	1
  17              		.arch armv7-m
  18              		.syntax unified
  19              		.thumb
  20              		.thumb_func
  21              		.fpu softvfp
  23              	EE_VerifyPageFullyErased:
  24              	.LVL0:
  25              	.LFB67:
  26              		.file 1 "Src/eeprom.c"
   1:Src/eeprom.c  **** /**
   2:Src/eeprom.c  ****   ******************************************************************************
   3:Src/eeprom.c  ****   * @file    EEPROM_Emulation/src/eeprom.c
   4:Src/eeprom.c  ****   * @author  MCD Application Team
   5:Src/eeprom.c  ****   * @version V1.3.0
   6:Src/eeprom.c  ****   * @date    18-December-2015
   7:Src/eeprom.c  ****   * @brief   This file provides all the EEPROM emulation firmware functions.
   8:Src/eeprom.c  ****   ******************************************************************************
   9:Src/eeprom.c  ****   * @attention
  10:Src/eeprom.c  ****   *
  11:Src/eeprom.c  ****   * <h2><center>&copy; COPYRIGHT(c) 2015 STMicroelectronics</center></h2>
  12:Src/eeprom.c  ****   *
  13:Src/eeprom.c  ****   * Redistribution and use in source and binary forms, with or without modification,
  14:Src/eeprom.c  ****   * are permitted provided that the following conditions are met:
  15:Src/eeprom.c  ****   *   1. Redistributions of source code must retain the above copyright notice,
  16:Src/eeprom.c  ****   *      this list of conditions and the following disclaimer.
  17:Src/eeprom.c  ****   *   2. Redistributions in binary form must reproduce the above copyright notice,
  18:Src/eeprom.c  ****   *      this list of conditions and the following disclaimer in the documentation
  19:Src/eeprom.c  ****   *      and/or other materials provided with the distribution.
  20:Src/eeprom.c  ****   *   3. Neither the name of STMicroelectronics nor the names of its contributors
  21:Src/eeprom.c  ****   *      may be used to endorse or promote products derived from this software
  22:Src/eeprom.c  ****   *      without specific prior written permission.
  23:Src/eeprom.c  ****   *
  24:Src/eeprom.c  ****   * THIS SOFTWARE IS PROVIDED BY THE COPYRIGHT HOLDERS AND CONTRIBUTORS "AS IS"
  25:Src/eeprom.c  ****   * AND ANY EXPRESS OR IMPLIED WARRANTIES, INCLUDING, BUT NOT LIMITED TO, THE
  26:Src/eeprom.c  ****   * IMPLIED WARRANTIES OF MERCHANTABILITY AND FITNESS FOR A PARTICULAR PURPOSE ARE
  27:Src/eeprom.c  ****   * DISCLAIMED. IN NO EVENT SHALL THE COPYRIGHT HOLDER OR CONTRIBUTORS BE LIABLE
  28:Src/eeprom.c  ****   * FOR ANY DIRECT, INDIRECT, INCIDENTAL, SPECIAL, EXEMPLARY, OR CONSEQUENTIAL
  29:Src/eeprom.c  ****   * DAMAGES (INCLUDING, BUT NOT LIMITED TO, PROCUREMENT OF SUBSTITUTE GOODS OR
  30:Src/eeprom.c  ****   * SERVICES; LOSS OF USE, DATA, OR PROFITS; OR BUSINESS INTERRUPTION) HOWEVER
  31:Src/eeprom.c  ****   * CAUSED AND ON ANY THEORY OF LIABILITY, WHETHER IN CONTRACT, STRICT LIABILITY,
  32:Src/eeprom.c  ****   * OR TORT (INCLUDING NEGLIGENCE OR OTHERWISE) ARISING IN ANY WAY OUT OF THE USE
ARM GAS  /tmp/ccZ9tIjc.s 			page 2


  33:Src/eeprom.c  ****   * OF THIS SOFTWARE, EVEN IF ADVISED OF THE POSSIBILITY OF SUCH DAMAGE.
  34:Src/eeprom.c  ****   *
  35:Src/eeprom.c  ****   ******************************************************************************
  36:Src/eeprom.c  ****   */
  37:Src/eeprom.c  **** 
  38:Src/eeprom.c  **** /** @addtogroup EEPROM_Emulation
  39:Src/eeprom.c  ****   * @{
  40:Src/eeprom.c  ****   */
  41:Src/eeprom.c  **** 
  42:Src/eeprom.c  **** /* Includes ------------------------------------------------------------------*/
  43:Src/eeprom.c  **** #include "eeprom.h"
  44:Src/eeprom.c  **** 
  45:Src/eeprom.c  **** /* Private typedef -----------------------------------------------------------*/
  46:Src/eeprom.c  **** /* Private define ------------------------------------------------------------*/
  47:Src/eeprom.c  **** /* Private macro -------------------------------------------------------------*/
  48:Src/eeprom.c  **** /* Private variables ---------------------------------------------------------*/
  49:Src/eeprom.c  **** 
  50:Src/eeprom.c  **** /* Global variable used to store variable value in read sequence */
  51:Src/eeprom.c  **** uint16_t DataVar = 0;
  52:Src/eeprom.c  **** 
  53:Src/eeprom.c  **** /* Virtual address defined by the user: 0xFFFF value is prohibited */
  54:Src/eeprom.c  **** extern uint16_t VirtAddVarTab[NB_OF_VAR];
  55:Src/eeprom.c  **** 
  56:Src/eeprom.c  **** /* Private function prototypes -----------------------------------------------*/
  57:Src/eeprom.c  **** /* Private functions ---------------------------------------------------------*/
  58:Src/eeprom.c  **** static HAL_StatusTypeDef EE_Format(void);
  59:Src/eeprom.c  **** static uint16_t EE_FindValidPage(uint8_t Operation);
  60:Src/eeprom.c  **** static uint16_t EE_VerifyPageFullWriteVariable(uint16_t VirtAddress, uint16_t Data);
  61:Src/eeprom.c  **** static uint16_t EE_PageTransfer(uint16_t VirtAddress, uint16_t Data);
  62:Src/eeprom.c  **** static uint16_t EE_VerifyPageFullyErased(uint32_t Address);
  63:Src/eeprom.c  **** 
  64:Src/eeprom.c  **** /**
  65:Src/eeprom.c  ****   * @brief  Restore the pages to a known good state in case of page's status
  66:Src/eeprom.c  ****   *   corruption after a power loss.
  67:Src/eeprom.c  ****   * @param  None.
  68:Src/eeprom.c  ****   * @retval - Flash error code: on write Flash error
  69:Src/eeprom.c  ****   *         - FLASH_COMPLETE: on success
  70:Src/eeprom.c  ****   */
  71:Src/eeprom.c  **** uint16_t EE_Init(void)
  72:Src/eeprom.c  **** {
  73:Src/eeprom.c  ****   uint16_t pagestatus0 = 6, pagestatus1 = 6;
  74:Src/eeprom.c  ****   uint16_t varidx = 0;
  75:Src/eeprom.c  ****   uint16_t eepromstatus = 0, readstatus = 0;
  76:Src/eeprom.c  ****   int16_t x = -1;
  77:Src/eeprom.c  ****   HAL_StatusTypeDef  flashstatus;
  78:Src/eeprom.c  ****   uint32_t page_error = 0;
  79:Src/eeprom.c  ****   FLASH_EraseInitTypeDef s_eraseinit;
  80:Src/eeprom.c  **** 
  81:Src/eeprom.c  **** 
  82:Src/eeprom.c  ****   /* Get Page0 status */
  83:Src/eeprom.c  ****   pagestatus0 = (*(__IO uint16_t*)PAGE0_BASE_ADDRESS);
  84:Src/eeprom.c  ****   /* Get Page1 status */
  85:Src/eeprom.c  ****   pagestatus1 = (*(__IO uint16_t*)PAGE1_BASE_ADDRESS);
  86:Src/eeprom.c  **** 
  87:Src/eeprom.c  ****   /* Fill EraseInit structure*/
  88:Src/eeprom.c  ****   s_eraseinit.TypeErase   = FLASH_TYPEERASE_PAGES;
  89:Src/eeprom.c  ****   s_eraseinit.PageAddress = PAGE0_ID;
ARM GAS  /tmp/ccZ9tIjc.s 			page 3


  90:Src/eeprom.c  ****   s_eraseinit.NbPages     = 1;
  91:Src/eeprom.c  **** 
  92:Src/eeprom.c  ****   /* Check for invalid header states and repair if necessary */
  93:Src/eeprom.c  ****   switch (pagestatus0)
  94:Src/eeprom.c  ****   {
  95:Src/eeprom.c  ****     case ERASED:
  96:Src/eeprom.c  ****       if (pagestatus1 == VALID_PAGE) /* Page0 erased, Page1 valid */
  97:Src/eeprom.c  ****       {
  98:Src/eeprom.c  ****           /* Erase Page0 */
  99:Src/eeprom.c  ****         if(!EE_VerifyPageFullyErased(PAGE0_BASE_ADDRESS))
 100:Src/eeprom.c  ****         {
 101:Src/eeprom.c  ****           flashstatus = HAL_FLASHEx_Erase(&s_eraseinit, &page_error);
 102:Src/eeprom.c  ****           /* If erase operation was failed, a Flash error code is returned */
 103:Src/eeprom.c  ****           if (flashstatus != HAL_OK)
 104:Src/eeprom.c  ****           {
 105:Src/eeprom.c  ****             return flashstatus;
 106:Src/eeprom.c  ****           }
 107:Src/eeprom.c  ****         }
 108:Src/eeprom.c  ****       }
 109:Src/eeprom.c  ****       else if (pagestatus1 == RECEIVE_DATA) /* Page0 erased, Page1 receive */
 110:Src/eeprom.c  ****       {
 111:Src/eeprom.c  ****         /* Erase Page0 */
 112:Src/eeprom.c  ****         if(!EE_VerifyPageFullyErased(PAGE0_BASE_ADDRESS))
 113:Src/eeprom.c  ****         {
 114:Src/eeprom.c  ****           flashstatus = HAL_FLASHEx_Erase(&s_eraseinit, &page_error);
 115:Src/eeprom.c  ****           /* If erase operation was failed, a Flash error code is returned */
 116:Src/eeprom.c  ****           if (flashstatus != HAL_OK)
 117:Src/eeprom.c  ****           {
 118:Src/eeprom.c  ****             return flashstatus;
 119:Src/eeprom.c  ****           }
 120:Src/eeprom.c  ****         }
 121:Src/eeprom.c  ****         /* Mark Page1 as valid */
 122:Src/eeprom.c  ****         flashstatus = HAL_FLASH_Program(FLASH_TYPEPROGRAM_HALFWORD, PAGE1_BASE_ADDRESS, VALID_PAGE)
 123:Src/eeprom.c  ****         /* If program operation was failed, a Flash error code is returned */
 124:Src/eeprom.c  ****         if (flashstatus != HAL_OK)
 125:Src/eeprom.c  ****         {
 126:Src/eeprom.c  ****           return flashstatus;
 127:Src/eeprom.c  ****         }
 128:Src/eeprom.c  ****       }
 129:Src/eeprom.c  ****       else /* First EEPROM access (Page0&1 are erased) or invalid state -> format EEPROM */
 130:Src/eeprom.c  ****       {
 131:Src/eeprom.c  ****         /* Erase both Page0 and Page1 and set Page0 as valid page */
 132:Src/eeprom.c  ****         flashstatus = EE_Format();
 133:Src/eeprom.c  ****         /* If erase/program operation was failed, a Flash error code is returned */
 134:Src/eeprom.c  ****         if (flashstatus != HAL_OK)
 135:Src/eeprom.c  ****         {
 136:Src/eeprom.c  ****           return flashstatus;
 137:Src/eeprom.c  ****         }
 138:Src/eeprom.c  ****       }
 139:Src/eeprom.c  ****       break;
 140:Src/eeprom.c  **** 
 141:Src/eeprom.c  ****     case RECEIVE_DATA:
 142:Src/eeprom.c  ****       if (pagestatus1 == VALID_PAGE) /* Page0 receive, Page1 valid */
 143:Src/eeprom.c  ****       {
 144:Src/eeprom.c  ****         /* Transfer data from Page1 to Page0 */
 145:Src/eeprom.c  ****         for (varidx = 0; varidx < NB_OF_VAR; varidx++)
 146:Src/eeprom.c  ****         {
ARM GAS  /tmp/ccZ9tIjc.s 			page 4


 147:Src/eeprom.c  ****           if (( *(__IO uint16_t*)(PAGE0_BASE_ADDRESS + 6)) == VirtAddVarTab[varidx])
 148:Src/eeprom.c  ****           {
 149:Src/eeprom.c  ****             x = varidx;
 150:Src/eeprom.c  ****           }
 151:Src/eeprom.c  ****           if (varidx != x)
 152:Src/eeprom.c  ****           {
 153:Src/eeprom.c  ****             /* Read the last variables' updates */
 154:Src/eeprom.c  ****             readstatus = EE_ReadVariable(VirtAddVarTab[varidx], &DataVar);
 155:Src/eeprom.c  ****             /* In case variable corresponding to the virtual address was found */
 156:Src/eeprom.c  ****             if (readstatus != 0x1)
 157:Src/eeprom.c  ****             {
 158:Src/eeprom.c  ****               /* Transfer the variable to the Page0 */
 159:Src/eeprom.c  ****               eepromstatus = EE_VerifyPageFullWriteVariable(VirtAddVarTab[varidx], DataVar);
 160:Src/eeprom.c  ****               /* If program operation was failed, a Flash error code is returned */
 161:Src/eeprom.c  ****               if (eepromstatus != HAL_OK)
 162:Src/eeprom.c  ****               {
 163:Src/eeprom.c  ****                 return eepromstatus;
 164:Src/eeprom.c  ****               }
 165:Src/eeprom.c  ****             }
 166:Src/eeprom.c  ****           }
 167:Src/eeprom.c  ****         }
 168:Src/eeprom.c  ****         /* Mark Page0 as valid */
 169:Src/eeprom.c  ****         flashstatus = HAL_FLASH_Program(FLASH_TYPEPROGRAM_HALFWORD, PAGE0_BASE_ADDRESS, VALID_PAGE)
 170:Src/eeprom.c  ****         /* If program operation was failed, a Flash error code is returned */
 171:Src/eeprom.c  ****         if (flashstatus != HAL_OK)
 172:Src/eeprom.c  ****         {
 173:Src/eeprom.c  ****           return flashstatus;
 174:Src/eeprom.c  ****         }
 175:Src/eeprom.c  ****         s_eraseinit.TypeErase   = FLASH_TYPEERASE_PAGES;
 176:Src/eeprom.c  ****         s_eraseinit.PageAddress = PAGE1_ID;
 177:Src/eeprom.c  ****         s_eraseinit.NbPages     = 1;
 178:Src/eeprom.c  ****         /* Erase Page1 */
 179:Src/eeprom.c  ****         if(!EE_VerifyPageFullyErased(PAGE1_BASE_ADDRESS))
 180:Src/eeprom.c  ****         {
 181:Src/eeprom.c  ****           flashstatus = HAL_FLASHEx_Erase(&s_eraseinit, &page_error);
 182:Src/eeprom.c  ****           /* If erase operation was failed, a Flash error code is returned */
 183:Src/eeprom.c  ****           if (flashstatus != HAL_OK)
 184:Src/eeprom.c  ****           {
 185:Src/eeprom.c  ****             return flashstatus;
 186:Src/eeprom.c  ****           }
 187:Src/eeprom.c  ****         }
 188:Src/eeprom.c  ****       }
 189:Src/eeprom.c  ****       else if (pagestatus1 == ERASED) /* Page0 receive, Page1 erased */
 190:Src/eeprom.c  ****       {
 191:Src/eeprom.c  ****         s_eraseinit.TypeErase   = FLASH_TYPEERASE_PAGES;
 192:Src/eeprom.c  ****         s_eraseinit.PageAddress = PAGE1_ID;
 193:Src/eeprom.c  ****         s_eraseinit.NbPages     = 1;
 194:Src/eeprom.c  ****         /* Erase Page1 */
 195:Src/eeprom.c  ****         if(!EE_VerifyPageFullyErased(PAGE1_BASE_ADDRESS))
 196:Src/eeprom.c  ****         {
 197:Src/eeprom.c  ****           flashstatus = HAL_FLASHEx_Erase(&s_eraseinit, &page_error);
 198:Src/eeprom.c  ****           /* If erase operation was failed, a Flash error code is returned */
 199:Src/eeprom.c  ****           if (flashstatus != HAL_OK)
 200:Src/eeprom.c  ****           {
 201:Src/eeprom.c  ****             return flashstatus;
 202:Src/eeprom.c  ****           }
 203:Src/eeprom.c  ****         }
ARM GAS  /tmp/ccZ9tIjc.s 			page 5


 204:Src/eeprom.c  ****         /* Mark Page0 as valid */
 205:Src/eeprom.c  ****         flashstatus = HAL_FLASH_Program(FLASH_TYPEPROGRAM_HALFWORD, PAGE0_BASE_ADDRESS, VALID_PAGE)
 206:Src/eeprom.c  ****         /* If program operation was failed, a Flash error code is returned */
 207:Src/eeprom.c  ****         if (flashstatus != HAL_OK)
 208:Src/eeprom.c  ****         {
 209:Src/eeprom.c  ****           return flashstatus;
 210:Src/eeprom.c  ****         }
 211:Src/eeprom.c  ****       }
 212:Src/eeprom.c  ****       else /* Invalid state -> format eeprom */
 213:Src/eeprom.c  ****       {
 214:Src/eeprom.c  ****         /* Erase both Page0 and Page1 and set Page0 as valid page */
 215:Src/eeprom.c  ****         flashstatus = EE_Format();
 216:Src/eeprom.c  ****         /* If erase/program operation was failed, a Flash error code is returned */
 217:Src/eeprom.c  ****         if (flashstatus != HAL_OK)
 218:Src/eeprom.c  ****         {
 219:Src/eeprom.c  ****           return flashstatus;
 220:Src/eeprom.c  ****         }
 221:Src/eeprom.c  ****       }
 222:Src/eeprom.c  ****       break;
 223:Src/eeprom.c  **** 
 224:Src/eeprom.c  ****     case VALID_PAGE:
 225:Src/eeprom.c  ****       if (pagestatus1 == VALID_PAGE) /* Invalid state -> format eeprom */
 226:Src/eeprom.c  ****       {
 227:Src/eeprom.c  ****         /* Erase both Page0 and Page1 and set Page0 as valid page */
 228:Src/eeprom.c  ****         flashstatus = EE_Format();
 229:Src/eeprom.c  ****         /* If erase/program operation was failed, a Flash error code is returned */
 230:Src/eeprom.c  ****         if (flashstatus != HAL_OK)
 231:Src/eeprom.c  ****         {
 232:Src/eeprom.c  ****           return flashstatus;
 233:Src/eeprom.c  ****         }
 234:Src/eeprom.c  ****       }
 235:Src/eeprom.c  ****       else if (pagestatus1 == ERASED) /* Page0 valid, Page1 erased */
 236:Src/eeprom.c  ****       {
 237:Src/eeprom.c  ****         s_eraseinit.TypeErase   = FLASH_TYPEERASE_PAGES;
 238:Src/eeprom.c  ****         s_eraseinit.PageAddress = PAGE1_ID;
 239:Src/eeprom.c  ****         s_eraseinit.NbPages     = 1;
 240:Src/eeprom.c  ****         /* Erase Page1 */
 241:Src/eeprom.c  ****         if(!EE_VerifyPageFullyErased(PAGE1_BASE_ADDRESS))
 242:Src/eeprom.c  ****         {
 243:Src/eeprom.c  ****           flashstatus = HAL_FLASHEx_Erase(&s_eraseinit, &page_error);
 244:Src/eeprom.c  ****           /* If erase operation was failed, a Flash error code is returned */
 245:Src/eeprom.c  ****           if (flashstatus != HAL_OK)
 246:Src/eeprom.c  ****           {
 247:Src/eeprom.c  ****             return flashstatus;
 248:Src/eeprom.c  ****           }
 249:Src/eeprom.c  ****         }
 250:Src/eeprom.c  ****       }
 251:Src/eeprom.c  ****       else /* Page0 valid, Page1 receive */
 252:Src/eeprom.c  ****       {
 253:Src/eeprom.c  ****         /* Transfer data from Page0 to Page1 */
 254:Src/eeprom.c  ****         for (varidx = 0; varidx < NB_OF_VAR; varidx++)
 255:Src/eeprom.c  ****         {
 256:Src/eeprom.c  ****           if ((*(__IO uint16_t*)(PAGE1_BASE_ADDRESS + 6)) == VirtAddVarTab[varidx])
 257:Src/eeprom.c  ****           {
 258:Src/eeprom.c  ****             x = varidx;
 259:Src/eeprom.c  ****           }
 260:Src/eeprom.c  ****           if (varidx != x)
ARM GAS  /tmp/ccZ9tIjc.s 			page 6


 261:Src/eeprom.c  ****           {
 262:Src/eeprom.c  ****             /* Read the last variables' updates */
 263:Src/eeprom.c  ****             readstatus = EE_ReadVariable(VirtAddVarTab[varidx], &DataVar);
 264:Src/eeprom.c  ****             /* In case variable corresponding to the virtual address was found */
 265:Src/eeprom.c  ****             if (readstatus != 0x1)
 266:Src/eeprom.c  ****             {
 267:Src/eeprom.c  ****               /* Transfer the variable to the Page1 */
 268:Src/eeprom.c  ****               eepromstatus = EE_VerifyPageFullWriteVariable(VirtAddVarTab[varidx], DataVar);
 269:Src/eeprom.c  ****               /* If program operation was failed, a Flash error code is returned */
 270:Src/eeprom.c  ****               if (eepromstatus != HAL_OK)
 271:Src/eeprom.c  ****               {
 272:Src/eeprom.c  ****                 return eepromstatus;
 273:Src/eeprom.c  ****               }
 274:Src/eeprom.c  ****             }
 275:Src/eeprom.c  ****           }
 276:Src/eeprom.c  ****         }
 277:Src/eeprom.c  ****         /* Mark Page1 as valid */
 278:Src/eeprom.c  ****         flashstatus = HAL_FLASH_Program(FLASH_TYPEPROGRAM_HALFWORD, PAGE1_BASE_ADDRESS, VALID_PAGE)
 279:Src/eeprom.c  ****         /* If program operation was failed, a Flash error code is returned */
 280:Src/eeprom.c  ****         if (flashstatus != HAL_OK)
 281:Src/eeprom.c  ****         {
 282:Src/eeprom.c  ****           return flashstatus;
 283:Src/eeprom.c  ****         }
 284:Src/eeprom.c  ****         s_eraseinit.TypeErase   = FLASH_TYPEERASE_PAGES;
 285:Src/eeprom.c  ****         s_eraseinit.PageAddress = PAGE0_ID;
 286:Src/eeprom.c  ****         s_eraseinit.NbPages     = 1;
 287:Src/eeprom.c  ****         /* Erase Page0 */
 288:Src/eeprom.c  ****         if(!EE_VerifyPageFullyErased(PAGE0_BASE_ADDRESS))
 289:Src/eeprom.c  ****         {
 290:Src/eeprom.c  ****           flashstatus = HAL_FLASHEx_Erase(&s_eraseinit, &page_error);
 291:Src/eeprom.c  ****           /* If erase operation was failed, a Flash error code is returned */
 292:Src/eeprom.c  ****           if (flashstatus != HAL_OK)
 293:Src/eeprom.c  ****           {
 294:Src/eeprom.c  ****             return flashstatus;
 295:Src/eeprom.c  ****           }
 296:Src/eeprom.c  ****         }
 297:Src/eeprom.c  ****       }
 298:Src/eeprom.c  ****       break;
 299:Src/eeprom.c  **** 
 300:Src/eeprom.c  ****     default:  /* Any other state -> format eeprom */
 301:Src/eeprom.c  ****       /* Erase both Page0 and Page1 and set Page0 as valid page */
 302:Src/eeprom.c  ****       flashstatus = EE_Format();
 303:Src/eeprom.c  ****       /* If erase/program operation was failed, a Flash error code is returned */
 304:Src/eeprom.c  ****       if (flashstatus != HAL_OK)
 305:Src/eeprom.c  ****       {
 306:Src/eeprom.c  ****         return flashstatus;
 307:Src/eeprom.c  ****       }
 308:Src/eeprom.c  ****       break;
 309:Src/eeprom.c  ****   }
 310:Src/eeprom.c  **** 
 311:Src/eeprom.c  ****   return HAL_OK;
 312:Src/eeprom.c  **** }
 313:Src/eeprom.c  **** 
 314:Src/eeprom.c  **** /**
 315:Src/eeprom.c  ****   * @brief  Verify if specified page is fully erased.
 316:Src/eeprom.c  ****   * @param  Address: page address
 317:Src/eeprom.c  ****   *   This parameter can be one of the following values:
ARM GAS  /tmp/ccZ9tIjc.s 			page 7


 318:Src/eeprom.c  ****   *     @arg PAGE0_BASE_ADDRESS: Page0 base address
 319:Src/eeprom.c  ****   *     @arg PAGE1_BASE_ADDRESS: Page1 base address
 320:Src/eeprom.c  ****   * @retval page fully erased status:
 321:Src/eeprom.c  ****   *           - 0: if Page not erased
 322:Src/eeprom.c  ****   *           - 1: if Page erased
 323:Src/eeprom.c  ****   */
 324:Src/eeprom.c  **** uint16_t EE_VerifyPageFullyErased(uint32_t Address)
 325:Src/eeprom.c  **** {
  27              		.loc 1 325 1 view -0
  28              		.cfi_startproc
  29              		@ args = 0, pretend = 0, frame = 0
  30              		@ frame_needed = 0, uses_anonymous_args = 0
  31              		@ link register save eliminated.
 326:Src/eeprom.c  ****   uint32_t readstatus = 1;
  32              		.loc 1 326 3 view .LVU1
 327:Src/eeprom.c  ****   uint16_t addressvalue = 0x5555;
  33              		.loc 1 327 3 view .LVU2
 328:Src/eeprom.c  **** 
 329:Src/eeprom.c  ****   /* Check each active page address starting from end */
 330:Src/eeprom.c  ****   while (Address <= PAGE0_END_ADDRESS)
  34              		.loc 1 330 3 view .LVU3
  35              		.loc 1 330 9 is_stmt 0 view .LVU4
  36 0000 00E0     		b	.L2
  37              	.LVL1:
  38              	.L7:
 331:Src/eeprom.c  ****   {
 332:Src/eeprom.c  ****     /* Get the current location content to be compared with virtual address */
 333:Src/eeprom.c  ****     addressvalue = (*(__IO uint16_t*)Address);
 334:Src/eeprom.c  **** 
 335:Src/eeprom.c  ****     /* Compare the read address with the virtual address */
 336:Src/eeprom.c  ****     if (addressvalue != ERASED)
 337:Src/eeprom.c  ****     {
 338:Src/eeprom.c  **** 
 339:Src/eeprom.c  ****       /* In case variable value is read, reset readstatus flag */
 340:Src/eeprom.c  ****       readstatus = 0;
 341:Src/eeprom.c  **** 
 342:Src/eeprom.c  ****       break;
 343:Src/eeprom.c  ****     }
 344:Src/eeprom.c  ****     /* Next address location */
 345:Src/eeprom.c  ****     Address = Address + 4;
  39              		.loc 1 345 5 is_stmt 1 view .LVU5
  40              		.loc 1 345 13 is_stmt 0 view .LVU6
  41 0002 0430     		adds	r0, r0, #4
  42              	.LVL2:
  43              	.L2:
 330:Src/eeprom.c  ****   {
  44              		.loc 1 330 9 is_stmt 1 view .LVU7
  45 0004 064B     		ldr	r3, .L8
  46 0006 9842     		cmp	r0, r3
  47 0008 07D2     		bcs	.L6
 333:Src/eeprom.c  **** 
  48              		.loc 1 333 5 view .LVU8
 333:Src/eeprom.c  **** 
  49              		.loc 1 333 18 is_stmt 0 view .LVU9
  50 000a 0388     		ldrh	r3, [r0]
  51 000c 9BB2     		uxth	r3, r3
  52              	.LVL3:
ARM GAS  /tmp/ccZ9tIjc.s 			page 8


 336:Src/eeprom.c  ****     {
  53              		.loc 1 336 5 is_stmt 1 view .LVU10
 336:Src/eeprom.c  ****     {
  54              		.loc 1 336 8 is_stmt 0 view .LVU11
  55 000e 4FF6FF72 		movw	r2, #65535
  56 0012 9342     		cmp	r3, r2
  57 0014 F5D0     		beq	.L7
 340:Src/eeprom.c  **** 
  58              		.loc 1 340 18 view .LVU12
  59 0016 0020     		movs	r0, #0
  60              	.LVL4:
 346:Src/eeprom.c  ****   }
 347:Src/eeprom.c  **** 
 348:Src/eeprom.c  ****   /* Return readstatus value: (0: Page not erased, 1: Page erased) */
 349:Src/eeprom.c  ****   return readstatus;
  61              		.loc 1 349 3 is_stmt 1 view .LVU13
 350:Src/eeprom.c  **** }
  62              		.loc 1 350 1 is_stmt 0 view .LVU14
  63 0018 7047     		bx	lr
  64              	.LVL5:
  65              	.L6:
 326:Src/eeprom.c  ****   uint16_t addressvalue = 0x5555;
  66              		.loc 1 326 12 view .LVU15
  67 001a 0120     		movs	r0, #1
  68              	.LVL6:
 326:Src/eeprom.c  ****   uint16_t addressvalue = 0x5555;
  69              		.loc 1 326 12 view .LVU16
  70 001c 7047     		bx	lr
  71              	.L9:
  72 001e 00BF     		.align	2
  73              	.L8:
  74 0020 00080108 		.word	134285312
  75              		.cfi_endproc
  76              	.LFE67:
  78              		.section	.text.EE_FindValidPage,"ax",%progbits
  79              		.align	1
  80              		.syntax unified
  81              		.thumb
  82              		.thumb_func
  83              		.fpu softvfp
  85              	EE_FindValidPage:
  86              	.LVL7:
  87              	.LFB71:
 351:Src/eeprom.c  **** 
 352:Src/eeprom.c  **** /**
 353:Src/eeprom.c  ****   * @brief  Returns the last stored variable data, if found, which correspond to
 354:Src/eeprom.c  ****   *   the passed virtual address
 355:Src/eeprom.c  ****   * @param  VirtAddress: Variable virtual address
 356:Src/eeprom.c  ****   * @param  Data: Global variable contains the read variable value
 357:Src/eeprom.c  ****   * @retval Success or error status:
 358:Src/eeprom.c  ****   *           - 0: if variable was found
 359:Src/eeprom.c  ****   *           - 1: if the variable was not found
 360:Src/eeprom.c  ****   *           - NO_VALID_PAGE: if no valid page was found.
 361:Src/eeprom.c  ****   */
 362:Src/eeprom.c  **** uint16_t EE_ReadVariable(uint16_t VirtAddress, uint16_t* Data)
 363:Src/eeprom.c  **** {
 364:Src/eeprom.c  ****   uint16_t validpage = PAGE0;
ARM GAS  /tmp/ccZ9tIjc.s 			page 9


 365:Src/eeprom.c  ****   uint16_t addressvalue = 0x5555, readstatus = 1;
 366:Src/eeprom.c  ****   uint32_t address = EEPROM_START_ADDRESS, PageStartAddress = EEPROM_START_ADDRESS;
 367:Src/eeprom.c  **** 
 368:Src/eeprom.c  ****   /* Get active Page for read operation */
 369:Src/eeprom.c  ****   validpage = EE_FindValidPage(READ_FROM_VALID_PAGE);
 370:Src/eeprom.c  **** 
 371:Src/eeprom.c  ****   /* Check if there is no valid page */
 372:Src/eeprom.c  ****   if (validpage == NO_VALID_PAGE)
 373:Src/eeprom.c  ****   {
 374:Src/eeprom.c  ****     return  NO_VALID_PAGE;
 375:Src/eeprom.c  ****   }
 376:Src/eeprom.c  **** 
 377:Src/eeprom.c  ****   /* Get the valid Page start Address */
 378:Src/eeprom.c  ****   PageStartAddress = (uint32_t)(EEPROM_START_ADDRESS + (uint32_t)(validpage * PAGE_SIZE));
 379:Src/eeprom.c  **** 
 380:Src/eeprom.c  ****   /* Get the valid Page end Address */
 381:Src/eeprom.c  ****   address = (uint32_t)((EEPROM_START_ADDRESS - 2) + (uint32_t)((1 + validpage) * PAGE_SIZE));
 382:Src/eeprom.c  **** 
 383:Src/eeprom.c  ****   /* Check each active page address starting from end */
 384:Src/eeprom.c  ****   while (address > (PageStartAddress + 2))
 385:Src/eeprom.c  ****   {
 386:Src/eeprom.c  ****     /* Get the current location content to be compared with virtual address */
 387:Src/eeprom.c  ****     addressvalue = (*(__IO uint16_t*)address);
 388:Src/eeprom.c  **** 
 389:Src/eeprom.c  ****     /* Compare the read address with the virtual address */
 390:Src/eeprom.c  ****     if (addressvalue == VirtAddress)
 391:Src/eeprom.c  ****     {
 392:Src/eeprom.c  ****       /* Get content of Address-2 which is variable value */
 393:Src/eeprom.c  ****       *Data = (*(__IO uint16_t*)(address - 2));
 394:Src/eeprom.c  **** 
 395:Src/eeprom.c  ****       /* In case variable value is read, reset readstatus flag */
 396:Src/eeprom.c  ****       readstatus = 0;
 397:Src/eeprom.c  **** 
 398:Src/eeprom.c  ****       break;
 399:Src/eeprom.c  ****     }
 400:Src/eeprom.c  ****     else
 401:Src/eeprom.c  ****     {
 402:Src/eeprom.c  ****       /* Next address location */
 403:Src/eeprom.c  ****       address = address - 4;
 404:Src/eeprom.c  ****     }
 405:Src/eeprom.c  ****   }
 406:Src/eeprom.c  **** 
 407:Src/eeprom.c  ****   /* Return readstatus value: (0: variable exist, 1: variable doesn't exist) */
 408:Src/eeprom.c  ****   return readstatus;
 409:Src/eeprom.c  **** }
 410:Src/eeprom.c  **** 
 411:Src/eeprom.c  **** /**
 412:Src/eeprom.c  ****   * @brief  Writes/upadtes variable data in EEPROM.
 413:Src/eeprom.c  ****   * @param  VirtAddress: Variable virtual address
 414:Src/eeprom.c  ****   * @param  Data: 16 bit data to be written
 415:Src/eeprom.c  ****   * @retval Success or error status:
 416:Src/eeprom.c  ****   *           - FLASH_COMPLETE: on success
 417:Src/eeprom.c  ****   *           - PAGE_FULL: if valid page is full
 418:Src/eeprom.c  ****   *           - NO_VALID_PAGE: if no valid page was found
 419:Src/eeprom.c  ****   *           - Flash error code: on write Flash error
 420:Src/eeprom.c  ****   */
 421:Src/eeprom.c  **** uint16_t EE_WriteVariable(uint16_t VirtAddress, uint16_t Data)
ARM GAS  /tmp/ccZ9tIjc.s 			page 10


 422:Src/eeprom.c  **** {
 423:Src/eeprom.c  ****   uint16_t Status = 0;
 424:Src/eeprom.c  **** 
 425:Src/eeprom.c  ****   /* Write the variable virtual address and value in the EEPROM */
 426:Src/eeprom.c  ****   Status = EE_VerifyPageFullWriteVariable(VirtAddress, Data);
 427:Src/eeprom.c  **** 
 428:Src/eeprom.c  ****   /* In case the EEPROM active page is full */
 429:Src/eeprom.c  ****   if (Status == PAGE_FULL)
 430:Src/eeprom.c  ****   {
 431:Src/eeprom.c  ****     /* Perform Page transfer */
 432:Src/eeprom.c  ****     Status = EE_PageTransfer(VirtAddress, Data);
 433:Src/eeprom.c  ****   }
 434:Src/eeprom.c  **** 
 435:Src/eeprom.c  ****   /* Return last operation status */
 436:Src/eeprom.c  ****   return Status;
 437:Src/eeprom.c  **** }
 438:Src/eeprom.c  **** 
 439:Src/eeprom.c  **** /**
 440:Src/eeprom.c  ****   * @brief  Erases PAGE and PAGE1 and writes VALID_PAGE header to PAGE
 441:Src/eeprom.c  ****   * @param  None
 442:Src/eeprom.c  ****   * @retval Status of the last operation (Flash write or erase) done during
 443:Src/eeprom.c  ****   *         EEPROM formating
 444:Src/eeprom.c  ****   */
 445:Src/eeprom.c  **** static HAL_StatusTypeDef EE_Format(void)
 446:Src/eeprom.c  **** {
 447:Src/eeprom.c  ****   HAL_StatusTypeDef flashstatus = HAL_OK;
 448:Src/eeprom.c  ****   uint32_t page_error = 0;
 449:Src/eeprom.c  ****   FLASH_EraseInitTypeDef s_eraseinit;
 450:Src/eeprom.c  **** 
 451:Src/eeprom.c  ****   s_eraseinit.TypeErase   = FLASH_TYPEERASE_PAGES;
 452:Src/eeprom.c  ****   s_eraseinit.PageAddress = PAGE0_ID;
 453:Src/eeprom.c  ****   s_eraseinit.NbPages     = 1;
 454:Src/eeprom.c  ****   /* Erase Page0 */
 455:Src/eeprom.c  ****   if(!EE_VerifyPageFullyErased(PAGE0_BASE_ADDRESS))
 456:Src/eeprom.c  ****   {
 457:Src/eeprom.c  ****     flashstatus = HAL_FLASHEx_Erase(&s_eraseinit, &page_error);
 458:Src/eeprom.c  ****     /* If erase operation was failed, a Flash error code is returned */
 459:Src/eeprom.c  ****     if (flashstatus != HAL_OK)
 460:Src/eeprom.c  ****     {
 461:Src/eeprom.c  ****       return flashstatus;
 462:Src/eeprom.c  ****     }
 463:Src/eeprom.c  ****   }
 464:Src/eeprom.c  ****   /* Set Page0 as valid page: Write VALID_PAGE at Page0 base address */
 465:Src/eeprom.c  ****   flashstatus = HAL_FLASH_Program(FLASH_TYPEPROGRAM_HALFWORD, PAGE0_BASE_ADDRESS, VALID_PAGE);
 466:Src/eeprom.c  ****   /* If program operation was failed, a Flash error code is returned */
 467:Src/eeprom.c  ****   if (flashstatus != HAL_OK)
 468:Src/eeprom.c  ****   {
 469:Src/eeprom.c  ****     return flashstatus;
 470:Src/eeprom.c  ****   }
 471:Src/eeprom.c  **** 
 472:Src/eeprom.c  ****   s_eraseinit.PageAddress = PAGE1_ID;
 473:Src/eeprom.c  ****   /* Erase Page1 */
 474:Src/eeprom.c  ****   if(!EE_VerifyPageFullyErased(PAGE1_BASE_ADDRESS))
 475:Src/eeprom.c  ****   {
 476:Src/eeprom.c  ****     flashstatus = HAL_FLASHEx_Erase(&s_eraseinit, &page_error);
 477:Src/eeprom.c  ****     /* If erase operation was failed, a Flash error code is returned */
 478:Src/eeprom.c  ****     if (flashstatus != HAL_OK)
ARM GAS  /tmp/ccZ9tIjc.s 			page 11


 479:Src/eeprom.c  ****     {
 480:Src/eeprom.c  ****       return flashstatus;
 481:Src/eeprom.c  ****     }
 482:Src/eeprom.c  ****   }
 483:Src/eeprom.c  **** 
 484:Src/eeprom.c  ****   return HAL_OK;
 485:Src/eeprom.c  **** }
 486:Src/eeprom.c  **** 
 487:Src/eeprom.c  **** /**
 488:Src/eeprom.c  ****   * @brief  Find valid Page for write or read operation
 489:Src/eeprom.c  ****   * @param  Operation: operation to achieve on the valid page.
 490:Src/eeprom.c  ****   *   This parameter can be one of the following values:
 491:Src/eeprom.c  ****   *     @arg READ_FROM_VALID_PAGE: read operation from valid page
 492:Src/eeprom.c  ****   *     @arg WRITE_IN_VALID_PAGE: write operation from valid page
 493:Src/eeprom.c  ****   * @retval Valid page number (PAGE or PAGE1) or NO_VALID_PAGE in case
 494:Src/eeprom.c  ****   *   of no valid page was found
 495:Src/eeprom.c  ****   */
 496:Src/eeprom.c  **** static uint16_t EE_FindValidPage(uint8_t Operation)
 497:Src/eeprom.c  **** {
  88              		.loc 1 497 1 is_stmt 1 view -0
  89              		.cfi_startproc
  90              		@ args = 0, pretend = 0, frame = 0
  91              		@ frame_needed = 0, uses_anonymous_args = 0
  92              		@ link register save eliminated.
 498:Src/eeprom.c  ****   uint16_t pagestatus0 = 6, pagestatus1 = 6;
  93              		.loc 1 498 3 view .LVU18
 499:Src/eeprom.c  **** 
 500:Src/eeprom.c  ****   /* Get Page0 actual status */
 501:Src/eeprom.c  ****   pagestatus0 = (*(__IO uint16_t*)PAGE0_BASE_ADDRESS);
  94              		.loc 1 501 3 view .LVU19
  95              		.loc 1 501 15 is_stmt 0 view .LVU20
  96 0000 114B     		ldr	r3, .L19
  97 0002 1B88     		ldrh	r3, [r3]
  98 0004 9BB2     		uxth	r3, r3
  99              	.LVL8:
 502:Src/eeprom.c  **** 
 503:Src/eeprom.c  ****   /* Get Page1 actual status */
 504:Src/eeprom.c  ****   pagestatus1 = (*(__IO uint16_t*)PAGE1_BASE_ADDRESS);
 100              		.loc 1 504 3 is_stmt 1 view .LVU21
 101              		.loc 1 504 15 is_stmt 0 view .LVU22
 102 0006 114A     		ldr	r2, .L19+4
 103 0008 1288     		ldrh	r2, [r2]
 104 000a 92B2     		uxth	r2, r2
 105              	.LVL9:
 505:Src/eeprom.c  **** 
 506:Src/eeprom.c  ****   /* Write or read operation */
 507:Src/eeprom.c  ****   switch (Operation)
 106              		.loc 1 507 3 is_stmt 1 view .LVU23
 107 000c 88B1     		cbz	r0, .L11
 108 000e 0128     		cmp	r0, #1
 109 0010 13D1     		bne	.L14
 508:Src/eeprom.c  ****   {
 509:Src/eeprom.c  ****     case WRITE_IN_VALID_PAGE:   /* ---- Write operation ---- */
 510:Src/eeprom.c  ****       if (pagestatus1 == VALID_PAGE)
 110              		.loc 1 510 7 view .LVU24
 111              		.loc 1 510 10 is_stmt 0 view .LVU25
 112 0012 3AB9     		cbnz	r2, .L13
ARM GAS  /tmp/ccZ9tIjc.s 			page 12


 511:Src/eeprom.c  ****       {
 512:Src/eeprom.c  ****         /* Page0 receiving data */
 513:Src/eeprom.c  ****         if (pagestatus0 == RECEIVE_DATA)
 113              		.loc 1 513 9 is_stmt 1 view .LVU26
 114              		.loc 1 513 12 is_stmt 0 view .LVU27
 115 0014 4EF6EE61 		movw	r1, #61166
 116 0018 8B42     		cmp	r3, r1
 117 001a 01D0     		beq	.L18
 514:Src/eeprom.c  ****         {
 515:Src/eeprom.c  ****           return PAGE0;         /* Page0 valid */
 516:Src/eeprom.c  ****         }
 517:Src/eeprom.c  ****         else
 518:Src/eeprom.c  ****         {
 519:Src/eeprom.c  ****           return PAGE1;         /* Page1 valid */
 118              		.loc 1 519 18 view .LVU28
 119 001c 4023     		movs	r3, #64
 120              	.LVL10:
 121              		.loc 1 519 18 view .LVU29
 122 001e 0DE0     		b	.L12
 123              	.LVL11:
 124              	.L18:
 515:Src/eeprom.c  ****         }
 125              		.loc 1 515 18 view .LVU30
 126 0020 1346     		mov	r3, r2
 127              	.LVL12:
 515:Src/eeprom.c  ****         }
 128              		.loc 1 515 18 view .LVU31
 129 0022 0BE0     		b	.L12
 130              	.LVL13:
 131              	.L13:
 520:Src/eeprom.c  ****         }
 521:Src/eeprom.c  ****       }
 522:Src/eeprom.c  ****       else if (pagestatus0 == VALID_PAGE)
 132              		.loc 1 522 12 is_stmt 1 view .LVU32
 133              		.loc 1 522 15 is_stmt 0 view .LVU33
 134 0024 63B9     		cbnz	r3, .L16
 523:Src/eeprom.c  ****       {
 524:Src/eeprom.c  ****         /* Page1 receiving data */
 525:Src/eeprom.c  ****         if (pagestatus1 == RECEIVE_DATA)
 135              		.loc 1 525 9 is_stmt 1 view .LVU34
 136              		.loc 1 525 12 is_stmt 0 view .LVU35
 137 0026 4EF6EE61 		movw	r1, #61166
 138 002a 8A42     		cmp	r2, r1
 139 002c 06D1     		bne	.L12
 526:Src/eeprom.c  ****         {
 527:Src/eeprom.c  ****           return PAGE1;         /* Page1 valid */
 140              		.loc 1 527 18 view .LVU36
 141 002e 4023     		movs	r3, #64
 142              	.LVL14:
 143              		.loc 1 527 18 view .LVU37
 144 0030 04E0     		b	.L12
 145              	.LVL15:
 146              	.L11:
 528:Src/eeprom.c  ****         }
 529:Src/eeprom.c  ****         else
 530:Src/eeprom.c  ****         {
 531:Src/eeprom.c  ****           return PAGE0;         /* Page0 valid */
ARM GAS  /tmp/ccZ9tIjc.s 			page 13


 532:Src/eeprom.c  ****         }
 533:Src/eeprom.c  ****       }
 534:Src/eeprom.c  ****       else
 535:Src/eeprom.c  ****       {
 536:Src/eeprom.c  ****         return NO_VALID_PAGE;   /* No valid Page */
 537:Src/eeprom.c  ****       }
 538:Src/eeprom.c  **** 
 539:Src/eeprom.c  ****     case READ_FROM_VALID_PAGE:  /* ---- Read operation ---- */
 540:Src/eeprom.c  ****       if (pagestatus0 == VALID_PAGE)
 147              		.loc 1 540 7 is_stmt 1 view .LVU38
 148              		.loc 1 540 10 is_stmt 0 view .LVU39
 149 0032 1BB1     		cbz	r3, .L12
 541:Src/eeprom.c  ****       {
 542:Src/eeprom.c  ****         return PAGE0;           /* Page0 valid */
 543:Src/eeprom.c  ****       }
 544:Src/eeprom.c  ****       else if (pagestatus1 == VALID_PAGE)
 150              		.loc 1 544 12 is_stmt 1 view .LVU40
 151              		.loc 1 544 15 is_stmt 0 view .LVU41
 152 0034 32B9     		cbnz	r2, .L17
 545:Src/eeprom.c  ****       {
 546:Src/eeprom.c  ****         return PAGE1;           /* Page1 valid */
 153              		.loc 1 546 16 view .LVU42
 154 0036 4023     		movs	r3, #64
 155              	.LVL16:
 156              		.loc 1 546 16 view .LVU43
 157 0038 00E0     		b	.L12
 158              	.LVL17:
 159              	.L14:
 507:Src/eeprom.c  ****   {
 160              		.loc 1 507 3 view .LVU44
 161 003a 0023     		movs	r3, #0
 162              	.LVL18:
 163              	.L12:
 547:Src/eeprom.c  ****       }
 548:Src/eeprom.c  ****       else
 549:Src/eeprom.c  ****       {
 550:Src/eeprom.c  ****         return NO_VALID_PAGE ;  /* No valid Page */
 551:Src/eeprom.c  ****       }
 552:Src/eeprom.c  **** 
 553:Src/eeprom.c  ****     default:
 554:Src/eeprom.c  ****       return PAGE0;             /* Page0 valid */
 555:Src/eeprom.c  ****   }
 556:Src/eeprom.c  **** }
 164              		.loc 1 556 1 view .LVU45
 165 003c 1846     		mov	r0, r3
 166              	.LVL19:
 167              		.loc 1 556 1 view .LVU46
 168 003e 7047     		bx	lr
 169              	.LVL20:
 170              	.L16:
 536:Src/eeprom.c  ****       }
 171              		.loc 1 536 16 view .LVU47
 172 0040 AB23     		movs	r3, #171
 173              	.LVL21:
 536:Src/eeprom.c  ****       }
 174              		.loc 1 536 16 view .LVU48
 175 0042 FBE7     		b	.L12
ARM GAS  /tmp/ccZ9tIjc.s 			page 14


 176              	.LVL22:
 177              	.L17:
 550:Src/eeprom.c  ****       }
 178              		.loc 1 550 16 view .LVU49
 179 0044 AB23     		movs	r3, #171
 180              	.LVL23:
 550:Src/eeprom.c  ****       }
 181              		.loc 1 550 16 view .LVU50
 182 0046 F9E7     		b	.L12
 183              	.L20:
 184              		.align	2
 185              	.L19:
 186 0048 00000108 		.word	134283264
 187 004c 00000208 		.word	134348800
 188              		.cfi_endproc
 189              	.LFE71:
 191              		.section	.text.EE_VerifyPageFullWriteVariable,"ax",%progbits
 192              		.align	1
 193              		.syntax unified
 194              		.thumb
 195              		.thumb_func
 196              		.fpu softvfp
 198              	EE_VerifyPageFullWriteVariable:
 199              	.LVL24:
 200              	.LFB72:
 557:Src/eeprom.c  **** 
 558:Src/eeprom.c  **** /**
 559:Src/eeprom.c  ****   * @brief  Verify if active page is full and Writes variable in EEPROM.
 560:Src/eeprom.c  ****   * @param  VirtAddress: 16 bit virtual address of the variable
 561:Src/eeprom.c  ****   * @param  Data: 16 bit data to be written as variable value
 562:Src/eeprom.c  ****   * @retval Success or error status:
 563:Src/eeprom.c  ****   *           - FLASH_COMPLETE: on success
 564:Src/eeprom.c  ****   *           - PAGE_FULL: if valid page is full
 565:Src/eeprom.c  ****   *           - NO_VALID_PAGE: if no valid page was found
 566:Src/eeprom.c  ****   *           - Flash error code: on write Flash error
 567:Src/eeprom.c  ****   */
 568:Src/eeprom.c  **** static uint16_t EE_VerifyPageFullWriteVariable(uint16_t VirtAddress, uint16_t Data)
 569:Src/eeprom.c  **** {
 201              		.loc 1 569 1 is_stmt 1 view -0
 202              		.cfi_startproc
 203              		@ args = 0, pretend = 0, frame = 0
 204              		@ frame_needed = 0, uses_anonymous_args = 0
 205              		.loc 1 569 1 is_stmt 0 view .LVU52
 206 0000 70B5     		push	{r4, r5, r6, lr}
 207              	.LCFI0:
 208              		.cfi_def_cfa_offset 16
 209              		.cfi_offset 4, -16
 210              		.cfi_offset 5, -12
 211              		.cfi_offset 6, -8
 212              		.cfi_offset 14, -4
 213 0002 0646     		mov	r6, r0
 214 0004 0D46     		mov	r5, r1
 570:Src/eeprom.c  ****   HAL_StatusTypeDef flashstatus = HAL_OK;
 215              		.loc 1 570 3 is_stmt 1 view .LVU53
 216              	.LVL25:
 571:Src/eeprom.c  ****   uint16_t validpage = PAGE0;
 217              		.loc 1 571 3 view .LVU54
ARM GAS  /tmp/ccZ9tIjc.s 			page 15


 572:Src/eeprom.c  ****   uint32_t address = EEPROM_START_ADDRESS, pageendaddress = EEPROM_START_ADDRESS+PAGE_SIZE;
 218              		.loc 1 572 3 view .LVU55
 573:Src/eeprom.c  **** 
 574:Src/eeprom.c  ****   /* Get valid Page for write operation */
 575:Src/eeprom.c  ****   validpage = EE_FindValidPage(WRITE_IN_VALID_PAGE);
 219              		.loc 1 575 3 view .LVU56
 220              		.loc 1 575 15 is_stmt 0 view .LVU57
 221 0006 0120     		movs	r0, #1
 222              	.LVL26:
 223              		.loc 1 575 15 view .LVU58
 224 0008 FFF7FEFF 		bl	EE_FindValidPage
 225              	.LVL27:
 576:Src/eeprom.c  **** 
 577:Src/eeprom.c  ****   /* Check if there is no valid page */
 578:Src/eeprom.c  ****   if (validpage == NO_VALID_PAGE)
 226              		.loc 1 578 3 is_stmt 1 view .LVU59
 227              		.loc 1 578 6 is_stmt 0 view .LVU60
 228 000c AB28     		cmp	r0, #171
 229 000e 21D0     		beq	.L22
 579:Src/eeprom.c  ****   {
 580:Src/eeprom.c  ****     return  NO_VALID_PAGE;
 581:Src/eeprom.c  ****   }
 582:Src/eeprom.c  **** 
 583:Src/eeprom.c  ****   /* Get the valid Page start address */
 584:Src/eeprom.c  ****   address = (uint32_t)(EEPROM_START_ADDRESS + (uint32_t)(validpage * PAGE_SIZE));
 230              		.loc 1 584 3 is_stmt 1 view .LVU61
 231              		.loc 1 584 13 is_stmt 0 view .LVU62
 232 0010 00F58034 		add	r4, r0, #65536
 233 0014 2034     		adds	r4, r4, #32
 234              		.loc 1 584 11 view .LVU63
 235 0016 E402     		lsls	r4, r4, #11
 236              	.LVL28:
 585:Src/eeprom.c  **** 
 586:Src/eeprom.c  ****   /* Get the valid Page end address */
 587:Src/eeprom.c  ****   pageendaddress = (uint32_t)((EEPROM_START_ADDRESS - 1) + (uint32_t)((validpage + 1) * PAGE_SIZE))
 237              		.loc 1 587 3 is_stmt 1 view .LVU64
 238              		.loc 1 587 82 is_stmt 0 view .LVU65
 239 0018 0130     		adds	r0, r0, #1
 240              	.LVL29:
 241              		.loc 1 587 18 view .LVU66
 242 001a 0F4B     		ldr	r3, .L30
 243 001c 03EBC02C 		add	ip, r3, r0, lsl #11
 244              	.LVL30:
 588:Src/eeprom.c  **** 
 589:Src/eeprom.c  ****   /* Check each active page address starting from begining */
 590:Src/eeprom.c  ****   while (address < pageendaddress)
 245              		.loc 1 590 3 is_stmt 1 view .LVU67
 246              	.L23:
 247              		.loc 1 590 9 view .LVU68
 248 0020 6445     		cmp	r4, ip
 249 0022 16D2     		bcs	.L28
 591:Src/eeprom.c  ****   {
 592:Src/eeprom.c  ****     /* Verify if address and address+2 contents are 0xFFFFFFFF */
 593:Src/eeprom.c  ****     if ((*(__IO uint32_t*)address) == 0xFFFFFFFF)
 250              		.loc 1 593 5 view .LVU69
 251              		.loc 1 593 10 is_stmt 0 view .LVU70
 252 0024 2368     		ldr	r3, [r4]
ARM GAS  /tmp/ccZ9tIjc.s 			page 16


 253              		.loc 1 593 8 view .LVU71
 254 0026 B3F1FF3F 		cmp	r3, #-1
 255 002a 01D0     		beq	.L29
 594:Src/eeprom.c  ****     {
 595:Src/eeprom.c  ****       /* Set variable data */
 596:Src/eeprom.c  ****       flashstatus = HAL_FLASH_Program(FLASH_TYPEPROGRAM_HALFWORD, address, Data);
 597:Src/eeprom.c  ****       /* If program operation was failed, a Flash error code is returned */
 598:Src/eeprom.c  ****       if (flashstatus != HAL_OK)
 599:Src/eeprom.c  ****       {
 600:Src/eeprom.c  ****         return flashstatus;
 601:Src/eeprom.c  ****       }
 602:Src/eeprom.c  ****       /* Set variable virtual address */
 603:Src/eeprom.c  ****       flashstatus = HAL_FLASH_Program(FLASH_TYPEPROGRAM_HALFWORD, address + 2, VirtAddress);       
 604:Src/eeprom.c  ****       /* Return program operation status */
 605:Src/eeprom.c  ****       return flashstatus;
 606:Src/eeprom.c  ****     }
 607:Src/eeprom.c  ****     else
 608:Src/eeprom.c  ****     {
 609:Src/eeprom.c  ****       /* Next address location */
 610:Src/eeprom.c  ****       address = address + 4;
 256              		.loc 1 610 7 is_stmt 1 view .LVU72
 257              		.loc 1 610 15 is_stmt 0 view .LVU73
 258 002c 0434     		adds	r4, r4, #4
 259              	.LVL31:
 260              		.loc 1 610 15 view .LVU74
 261 002e F7E7     		b	.L23
 262              	.L29:
 596:Src/eeprom.c  ****       /* If program operation was failed, a Flash error code is returned */
 263              		.loc 1 596 7 is_stmt 1 view .LVU75
 596:Src/eeprom.c  ****       /* If program operation was failed, a Flash error code is returned */
 264              		.loc 1 596 21 is_stmt 0 view .LVU76
 265 0030 2A46     		mov	r2, r5
 266 0032 0023     		movs	r3, #0
 267 0034 2146     		mov	r1, r4
 268 0036 0120     		movs	r0, #1
 269 0038 FFF7FEFF 		bl	HAL_FLASH_Program
 270              	.LVL32:
 598:Src/eeprom.c  ****       {
 271              		.loc 1 598 7 is_stmt 1 view .LVU77
 598:Src/eeprom.c  ****       {
 272              		.loc 1 598 10 is_stmt 0 view .LVU78
 273 003c 08B1     		cbz	r0, .L25
 600:Src/eeprom.c  ****       }
 274              		.loc 1 600 9 is_stmt 1 view .LVU79
 600:Src/eeprom.c  ****       }
 275              		.loc 1 600 16 is_stmt 0 view .LVU80
 276 003e 80B2     		uxth	r0, r0
 277              	.LVL33:
 600:Src/eeprom.c  ****       }
 278              		.loc 1 600 16 view .LVU81
 279 0040 08E0     		b	.L22
 280              	.LVL34:
 281              	.L25:
 603:Src/eeprom.c  ****       /* Return program operation status */
 282              		.loc 1 603 7 is_stmt 1 view .LVU82
 603:Src/eeprom.c  ****       /* Return program operation status */
 283              		.loc 1 603 21 is_stmt 0 view .LVU83
ARM GAS  /tmp/ccZ9tIjc.s 			page 17


 284 0042 3246     		mov	r2, r6
 285 0044 0023     		movs	r3, #0
 286 0046 A11C     		adds	r1, r4, #2
 287 0048 0120     		movs	r0, #1
 288              	.LVL35:
 603:Src/eeprom.c  ****       /* Return program operation status */
 289              		.loc 1 603 21 view .LVU84
 290 004a FFF7FEFF 		bl	HAL_FLASH_Program
 291              	.LVL36:
 605:Src/eeprom.c  ****     }
 292              		.loc 1 605 7 is_stmt 1 view .LVU85
 605:Src/eeprom.c  ****     }
 293              		.loc 1 605 14 is_stmt 0 view .LVU86
 294 004e 80B2     		uxth	r0, r0
 295              	.LVL37:
 605:Src/eeprom.c  ****     }
 296              		.loc 1 605 14 view .LVU87
 297 0050 00E0     		b	.L22
 298              	.LVL38:
 299              	.L28:
 611:Src/eeprom.c  ****     }
 612:Src/eeprom.c  ****   }
 613:Src/eeprom.c  **** 
 614:Src/eeprom.c  ****   /* Return PAGE_FULL in case the valid page is full */
 615:Src/eeprom.c  ****   return PAGE_FULL;
 300              		.loc 1 615 10 view .LVU88
 301 0052 8020     		movs	r0, #128
 302              	.LVL39:
 303              	.L22:
 616:Src/eeprom.c  **** }
 304              		.loc 1 616 1 view .LVU89
 305 0054 70BD     		pop	{r4, r5, r6, pc}
 306              	.L31:
 307 0056 00BF     		.align	2
 308              	.L30:
 309 0058 FFFF0008 		.word	134283263
 310              		.cfi_endproc
 311              	.LFE72:
 313              		.section	.text.EE_Format,"ax",%progbits
 314              		.align	1
 315              		.syntax unified
 316              		.thumb
 317              		.thumb_func
 318              		.fpu softvfp
 320              	EE_Format:
 321              	.LFB70:
 446:Src/eeprom.c  ****   HAL_StatusTypeDef flashstatus = HAL_OK;
 322              		.loc 1 446 1 is_stmt 1 view -0
 323              		.cfi_startproc
 324              		@ args = 0, pretend = 0, frame = 24
 325              		@ frame_needed = 0, uses_anonymous_args = 0
 326 0000 10B5     		push	{r4, lr}
 327              	.LCFI1:
 328              		.cfi_def_cfa_offset 8
 329              		.cfi_offset 4, -8
 330              		.cfi_offset 14, -4
 331 0002 86B0     		sub	sp, sp, #24
ARM GAS  /tmp/ccZ9tIjc.s 			page 18


 332              	.LCFI2:
 333              		.cfi_def_cfa_offset 32
 447:Src/eeprom.c  ****   uint32_t page_error = 0;
 334              		.loc 1 447 3 view .LVU91
 335              	.LVL40:
 448:Src/eeprom.c  ****   FLASH_EraseInitTypeDef s_eraseinit;
 336              		.loc 1 448 3 view .LVU92
 448:Src/eeprom.c  ****   FLASH_EraseInitTypeDef s_eraseinit;
 337              		.loc 1 448 12 is_stmt 0 view .LVU93
 338 0004 0023     		movs	r3, #0
 339 0006 0593     		str	r3, [sp, #20]
 449:Src/eeprom.c  **** 
 340              		.loc 1 449 3 is_stmt 1 view .LVU94
 451:Src/eeprom.c  ****   s_eraseinit.PageAddress = PAGE0_ID;
 341              		.loc 1 451 3 view .LVU95
 451:Src/eeprom.c  ****   s_eraseinit.PageAddress = PAGE0_ID;
 342              		.loc 1 451 27 is_stmt 0 view .LVU96
 343 0008 0193     		str	r3, [sp, #4]
 452:Src/eeprom.c  ****   s_eraseinit.NbPages     = 1;
 344              		.loc 1 452 3 is_stmt 1 view .LVU97
 452:Src/eeprom.c  ****   s_eraseinit.NbPages     = 1;
 345              		.loc 1 452 27 is_stmt 0 view .LVU98
 346 000a 1248     		ldr	r0, .L37
 347 000c 0390     		str	r0, [sp, #12]
 453:Src/eeprom.c  ****   /* Erase Page0 */
 348              		.loc 1 453 3 is_stmt 1 view .LVU99
 453:Src/eeprom.c  ****   /* Erase Page0 */
 349              		.loc 1 453 27 is_stmt 0 view .LVU100
 350 000e 0123     		movs	r3, #1
 351 0010 0493     		str	r3, [sp, #16]
 455:Src/eeprom.c  ****   {
 352              		.loc 1 455 3 is_stmt 1 view .LVU101
 455:Src/eeprom.c  ****   {
 353              		.loc 1 455 7 is_stmt 0 view .LVU102
 354 0012 FFF7FEFF 		bl	EE_VerifyPageFullyErased
 355              	.LVL41:
 455:Src/eeprom.c  ****   {
 356              		.loc 1 455 5 view .LVU103
 357 0016 28B9     		cbnz	r0, .L33
 457:Src/eeprom.c  ****     /* If erase operation was failed, a Flash error code is returned */
 358              		.loc 1 457 5 is_stmt 1 view .LVU104
 457:Src/eeprom.c  ****     /* If erase operation was failed, a Flash error code is returned */
 359              		.loc 1 457 19 is_stmt 0 view .LVU105
 360 0018 05A9     		add	r1, sp, #20
 361 001a 01A8     		add	r0, sp, #4
 362 001c FFF7FEFF 		bl	HAL_FLASHEx_Erase
 363              	.LVL42:
 459:Src/eeprom.c  ****     {
 364              		.loc 1 459 5 is_stmt 1 view .LVU106
 459:Src/eeprom.c  ****     {
 365              		.loc 1 459 8 is_stmt 0 view .LVU107
 366 0020 0446     		mov	r4, r0
 367 0022 38B9     		cbnz	r0, .L34
 368              	.LVL43:
 369              	.L33:
 465:Src/eeprom.c  ****   /* If program operation was failed, a Flash error code is returned */
 370              		.loc 1 465 3 is_stmt 1 view .LVU108
ARM GAS  /tmp/ccZ9tIjc.s 			page 19


 465:Src/eeprom.c  ****   /* If program operation was failed, a Flash error code is returned */
 371              		.loc 1 465 17 is_stmt 0 view .LVU109
 372 0024 0022     		movs	r2, #0
 373 0026 0023     		movs	r3, #0
 374 0028 0A49     		ldr	r1, .L37
 375 002a 0120     		movs	r0, #1
 376 002c FFF7FEFF 		bl	HAL_FLASH_Program
 377              	.LVL44:
 467:Src/eeprom.c  ****   {
 378              		.loc 1 467 3 is_stmt 1 view .LVU110
 467:Src/eeprom.c  ****   {
 379              		.loc 1 467 6 is_stmt 0 view .LVU111
 380 0030 0446     		mov	r4, r0
 381 0032 10B1     		cbz	r0, .L36
 382              	.LVL45:
 383              	.L34:
 485:Src/eeprom.c  **** 
 384              		.loc 1 485 1 view .LVU112
 385 0034 2046     		mov	r0, r4
 386 0036 06B0     		add	sp, sp, #24
 387              	.LCFI3:
 388              		.cfi_remember_state
 389              		.cfi_def_cfa_offset 8
 390              		@ sp needed
 391 0038 10BD     		pop	{r4, pc}
 392              	.LVL46:
 393              	.L36:
 394              	.LCFI4:
 395              		.cfi_restore_state
 472:Src/eeprom.c  ****   /* Erase Page1 */
 396              		.loc 1 472 3 is_stmt 1 view .LVU113
 472:Src/eeprom.c  ****   /* Erase Page1 */
 397              		.loc 1 472 27 is_stmt 0 view .LVU114
 398 003a 074B     		ldr	r3, .L37+4
 399 003c 0393     		str	r3, [sp, #12]
 474:Src/eeprom.c  ****   {
 400              		.loc 1 474 3 is_stmt 1 view .LVU115
 474:Src/eeprom.c  ****   {
 401              		.loc 1 474 7 is_stmt 0 view .LVU116
 402 003e 0748     		ldr	r0, .L37+8
 403              	.LVL47:
 474:Src/eeprom.c  ****   {
 404              		.loc 1 474 7 view .LVU117
 405 0040 FFF7FEFF 		bl	EE_VerifyPageFullyErased
 406              	.LVL48:
 474:Src/eeprom.c  ****   {
 407              		.loc 1 474 5 view .LVU118
 408 0044 0028     		cmp	r0, #0
 409 0046 F5D1     		bne	.L34
 476:Src/eeprom.c  ****     /* If erase operation was failed, a Flash error code is returned */
 410              		.loc 1 476 5 is_stmt 1 view .LVU119
 476:Src/eeprom.c  ****     /* If erase operation was failed, a Flash error code is returned */
 411              		.loc 1 476 19 is_stmt 0 view .LVU120
 412 0048 05A9     		add	r1, sp, #20
 413 004a 01A8     		add	r0, sp, #4
 414 004c FFF7FEFF 		bl	HAL_FLASHEx_Erase
 415              	.LVL49:
ARM GAS  /tmp/ccZ9tIjc.s 			page 20


 416 0050 0446     		mov	r4, r0
 417              	.LVL50:
 478:Src/eeprom.c  ****     {
 418              		.loc 1 478 5 is_stmt 1 view .LVU121
 419 0052 EFE7     		b	.L34
 420              	.L38:
 421              		.align	2
 422              	.L37:
 423 0054 00000108 		.word	134283264
 424 0058 00800108 		.word	134316032
 425 005c 00000208 		.word	134348800
 426              		.cfi_endproc
 427              	.LFE70:
 429              		.section	.text.EE_ReadVariable,"ax",%progbits
 430              		.align	1
 431              		.global	EE_ReadVariable
 432              		.syntax unified
 433              		.thumb
 434              		.thumb_func
 435              		.fpu softvfp
 437              	EE_ReadVariable:
 438              	.LVL51:
 439              	.LFB68:
 363:Src/eeprom.c  ****   uint16_t validpage = PAGE0;
 440              		.loc 1 363 1 view -0
 441              		.cfi_startproc
 442              		@ args = 0, pretend = 0, frame = 0
 443              		@ frame_needed = 0, uses_anonymous_args = 0
 363:Src/eeprom.c  ****   uint16_t validpage = PAGE0;
 444              		.loc 1 363 1 is_stmt 0 view .LVU123
 445 0000 38B5     		push	{r3, r4, r5, lr}
 446              	.LCFI5:
 447              		.cfi_def_cfa_offset 16
 448              		.cfi_offset 3, -16
 449              		.cfi_offset 4, -12
 450              		.cfi_offset 5, -8
 451              		.cfi_offset 14, -4
 452 0002 0446     		mov	r4, r0
 453 0004 0D46     		mov	r5, r1
 364:Src/eeprom.c  ****   uint16_t addressvalue = 0x5555, readstatus = 1;
 454              		.loc 1 364 3 is_stmt 1 view .LVU124
 455              	.LVL52:
 365:Src/eeprom.c  ****   uint32_t address = EEPROM_START_ADDRESS, PageStartAddress = EEPROM_START_ADDRESS;
 456              		.loc 1 365 3 view .LVU125
 366:Src/eeprom.c  **** 
 457              		.loc 1 366 3 view .LVU126
 369:Src/eeprom.c  **** 
 458              		.loc 1 369 3 view .LVU127
 369:Src/eeprom.c  **** 
 459              		.loc 1 369 15 is_stmt 0 view .LVU128
 460 0006 0020     		movs	r0, #0
 461              	.LVL53:
 369:Src/eeprom.c  **** 
 462              		.loc 1 369 15 view .LVU129
 463 0008 FFF7FEFF 		bl	EE_FindValidPage
 464              	.LVL54:
 372:Src/eeprom.c  ****   {
ARM GAS  /tmp/ccZ9tIjc.s 			page 21


 465              		.loc 1 372 3 is_stmt 1 view .LVU130
 372:Src/eeprom.c  ****   {
 466              		.loc 1 372 6 is_stmt 0 view .LVU131
 467 000c AB28     		cmp	r0, #171
 468 000e 19D0     		beq	.L40
 378:Src/eeprom.c  **** 
 469              		.loc 1 378 3 is_stmt 1 view .LVU132
 378:Src/eeprom.c  **** 
 470              		.loc 1 378 22 is_stmt 0 view .LVU133
 471 0010 00F5803C 		add	ip, r0, #65536
 472 0014 0CF1200C 		add	ip, ip, #32
 378:Src/eeprom.c  **** 
 473              		.loc 1 378 20 view .LVU134
 474 0018 4FEACC2C 		lsl	ip, ip, #11
 475              	.LVL55:
 381:Src/eeprom.c  **** 
 476              		.loc 1 381 3 is_stmt 1 view .LVU135
 381:Src/eeprom.c  **** 
 477              		.loc 1 381 67 is_stmt 0 view .LVU136
 478 001c 0130     		adds	r0, r0, #1
 479              	.LVL56:
 381:Src/eeprom.c  **** 
 480              		.loc 1 381 11 view .LVU137
 481 001e 0A4B     		ldr	r3, .L47
 482 0020 03EBC023 		add	r3, r3, r0, lsl #11
 483              	.LVL57:
 384:Src/eeprom.c  ****   {
 484              		.loc 1 384 3 is_stmt 1 view .LVU138
 485              	.L41:
 384:Src/eeprom.c  ****   {
 486              		.loc 1 384 9 view .LVU139
 384:Src/eeprom.c  ****   {
 487              		.loc 1 384 38 is_stmt 0 view .LVU140
 488 0024 0CF10202 		add	r2, ip, #2
 384:Src/eeprom.c  ****   {
 489              		.loc 1 384 9 view .LVU141
 490 0028 9A42     		cmp	r2, r3
 491 002a 0AD2     		bcs	.L45
 387:Src/eeprom.c  **** 
 492              		.loc 1 387 5 is_stmt 1 view .LVU142
 387:Src/eeprom.c  **** 
 493              		.loc 1 387 18 is_stmt 0 view .LVU143
 494 002c 1A88     		ldrh	r2, [r3]
 495 002e 92B2     		uxth	r2, r2
 496              	.LVL58:
 390:Src/eeprom.c  ****     {
 497              		.loc 1 390 5 is_stmt 1 view .LVU144
 390:Src/eeprom.c  ****     {
 498              		.loc 1 390 8 is_stmt 0 view .LVU145
 499 0030 A242     		cmp	r2, r4
 500 0032 01D0     		beq	.L46
 403:Src/eeprom.c  ****     }
 501              		.loc 1 403 7 is_stmt 1 view .LVU146
 403:Src/eeprom.c  ****     }
 502              		.loc 1 403 15 is_stmt 0 view .LVU147
 503 0034 043B     		subs	r3, r3, #4
 504              	.LVL59:
ARM GAS  /tmp/ccZ9tIjc.s 			page 22


 403:Src/eeprom.c  ****     }
 505              		.loc 1 403 15 view .LVU148
 506 0036 F5E7     		b	.L41
 507              	.L46:
 393:Src/eeprom.c  **** 
 508              		.loc 1 393 7 is_stmt 1 view .LVU149
 393:Src/eeprom.c  **** 
 509              		.loc 1 393 16 is_stmt 0 view .LVU150
 510 0038 33F8023C 		ldrh	r3, [r3, #-2]
 511              	.LVL60:
 393:Src/eeprom.c  **** 
 512              		.loc 1 393 13 view .LVU151
 513 003c 2B80     		strh	r3, [r5]	@ movhi
 396:Src/eeprom.c  **** 
 514              		.loc 1 396 7 is_stmt 1 view .LVU152
 515              	.LVL61:
 398:Src/eeprom.c  ****     }
 516              		.loc 1 398 7 view .LVU153
 396:Src/eeprom.c  **** 
 517              		.loc 1 396 18 is_stmt 0 view .LVU154
 518 003e 0020     		movs	r0, #0
 398:Src/eeprom.c  ****     }
 519              		.loc 1 398 7 view .LVU155
 520 0040 00E0     		b	.L40
 521              	.LVL62:
 522              	.L45:
 365:Src/eeprom.c  ****   uint32_t address = EEPROM_START_ADDRESS, PageStartAddress = EEPROM_START_ADDRESS;
 523              		.loc 1 365 35 view .LVU156
 524 0042 0120     		movs	r0, #1
 525              	.LVL63:
 526              	.L40:
 409:Src/eeprom.c  **** 
 527              		.loc 1 409 1 view .LVU157
 528 0044 38BD     		pop	{r3, r4, r5, pc}
 529              	.LVL64:
 530              	.L48:
 409:Src/eeprom.c  **** 
 531              		.loc 1 409 1 view .LVU158
 532 0046 00BF     		.align	2
 533              	.L47:
 534 0048 FEFF0008 		.word	134283262
 535              		.cfi_endproc
 536              	.LFE68:
 538              		.section	.text.EE_Init,"ax",%progbits
 539              		.align	1
 540              		.global	EE_Init
 541              		.syntax unified
 542              		.thumb
 543              		.thumb_func
 544              		.fpu softvfp
 546              	EE_Init:
 547              	.LFB66:
  72:Src/eeprom.c  ****   uint16_t pagestatus0 = 6, pagestatus1 = 6;
 548              		.loc 1 72 1 is_stmt 1 view -0
 549              		.cfi_startproc
 550              		@ args = 0, pretend = 0, frame = 24
 551              		@ frame_needed = 0, uses_anonymous_args = 0
ARM GAS  /tmp/ccZ9tIjc.s 			page 23


 552 0000 F0B5     		push	{r4, r5, r6, r7, lr}
 553              	.LCFI6:
 554              		.cfi_def_cfa_offset 20
 555              		.cfi_offset 4, -20
 556              		.cfi_offset 5, -16
 557              		.cfi_offset 6, -12
 558              		.cfi_offset 7, -8
 559              		.cfi_offset 14, -4
 560 0002 87B0     		sub	sp, sp, #28
 561              	.LCFI7:
 562              		.cfi_def_cfa_offset 48
  73:Src/eeprom.c  ****   uint16_t varidx = 0;
 563              		.loc 1 73 3 view .LVU160
 564              	.LVL65:
  74:Src/eeprom.c  ****   uint16_t eepromstatus = 0, readstatus = 0;
 565              		.loc 1 74 3 view .LVU161
  75:Src/eeprom.c  ****   int16_t x = -1;
 566              		.loc 1 75 3 view .LVU162
  76:Src/eeprom.c  ****   HAL_StatusTypeDef  flashstatus;
 567              		.loc 1 76 3 view .LVU163
  77:Src/eeprom.c  ****   uint32_t page_error = 0;
 568              		.loc 1 77 3 view .LVU164
  78:Src/eeprom.c  ****   FLASH_EraseInitTypeDef s_eraseinit;
 569              		.loc 1 78 3 view .LVU165
  78:Src/eeprom.c  ****   FLASH_EraseInitTypeDef s_eraseinit;
 570              		.loc 1 78 12 is_stmt 0 view .LVU166
 571 0004 0022     		movs	r2, #0
 572 0006 0592     		str	r2, [sp, #20]
  79:Src/eeprom.c  **** 
 573              		.loc 1 79 3 is_stmt 1 view .LVU167
  83:Src/eeprom.c  ****   /* Get Page1 status */
 574              		.loc 1 83 3 view .LVU168
  83:Src/eeprom.c  ****   /* Get Page1 status */
 575              		.loc 1 83 15 is_stmt 0 view .LVU169
 576 0008 8C4B     		ldr	r3, .L108
 577 000a 1E88     		ldrh	r6, [r3]
 578 000c B6B2     		uxth	r6, r6
 579              	.LVL66:
  85:Src/eeprom.c  **** 
 580              		.loc 1 85 3 is_stmt 1 view .LVU170
  85:Src/eeprom.c  **** 
 581              		.loc 1 85 15 is_stmt 0 view .LVU171
 582 000e 8C49     		ldr	r1, .L108+4
 583 0010 0D88     		ldrh	r5, [r1]
 584 0012 ADB2     		uxth	r5, r5
 585              	.LVL67:
  88:Src/eeprom.c  ****   s_eraseinit.PageAddress = PAGE0_ID;
 586              		.loc 1 88 3 is_stmt 1 view .LVU172
  88:Src/eeprom.c  ****   s_eraseinit.PageAddress = PAGE0_ID;
 587              		.loc 1 88 27 is_stmt 0 view .LVU173
 588 0014 0192     		str	r2, [sp, #4]
  89:Src/eeprom.c  ****   s_eraseinit.NbPages     = 1;
 589              		.loc 1 89 3 is_stmt 1 view .LVU174
  89:Src/eeprom.c  ****   s_eraseinit.NbPages     = 1;
 590              		.loc 1 89 27 is_stmt 0 view .LVU175
 591 0016 0393     		str	r3, [sp, #12]
  90:Src/eeprom.c  **** 
ARM GAS  /tmp/ccZ9tIjc.s 			page 24


 592              		.loc 1 90 3 is_stmt 1 view .LVU176
  90:Src/eeprom.c  **** 
 593              		.loc 1 90 27 is_stmt 0 view .LVU177
 594 0018 0123     		movs	r3, #1
 595 001a 0493     		str	r3, [sp, #16]
  93:Src/eeprom.c  ****   {
 596              		.loc 1 93 3 is_stmt 1 view .LVU178
 597 001c 4EF6EE63 		movw	r3, #61166
 598 0020 9E42     		cmp	r6, r3
 599 0022 40D0     		beq	.L50
 600 0024 4FF6FF73 		movw	r3, #65535
 601 0028 9E42     		cmp	r6, r3
 602 002a 0BD0     		beq	.L51
 603 002c 002E     		cmp	r6, #0
 604 002e 00F0A280 		beq	.L87
 302:Src/eeprom.c  ****       /* If erase/program operation was failed, a Flash error code is returned */
 605              		.loc 1 302 7 view .LVU179
 302:Src/eeprom.c  ****       /* If erase/program operation was failed, a Flash error code is returned */
 606              		.loc 1 302 21 is_stmt 0 view .LVU180
 607 0032 FFF7FEFF 		bl	EE_Format
 608              	.LVL68:
 304:Src/eeprom.c  ****       {
 609              		.loc 1 304 7 is_stmt 1 view .LVU181
 304:Src/eeprom.c  ****       {
 610              		.loc 1 304 10 is_stmt 0 view .LVU182
 611 0036 0028     		cmp	r0, #0
 612 0038 40F0FE80 		bne	.L88
 311:Src/eeprom.c  **** }
 613              		.loc 1 311 10 view .LVU183
 614 003c 0025     		movs	r5, #0
 615              	.LVL69:
 616              	.L55:
 312:Src/eeprom.c  **** 
 617              		.loc 1 312 1 view .LVU184
 618 003e 2846     		mov	r0, r5
 619 0040 07B0     		add	sp, sp, #28
 620              	.LCFI8:
 621              		.cfi_remember_state
 622              		.cfi_def_cfa_offset 20
 623              		@ sp needed
 624 0042 F0BD     		pop	{r4, r5, r6, r7, pc}
 625              	.LVL70:
 626              	.L51:
 627              	.LCFI9:
 628              		.cfi_restore_state
  96:Src/eeprom.c  ****       {
 629              		.loc 1 96 7 is_stmt 1 view .LVU185
  96:Src/eeprom.c  ****       {
 630              		.loc 1 96 10 is_stmt 0 view .LVU186
 631 0044 45B1     		cbz	r5, .L89
 109:Src/eeprom.c  ****       {
 632              		.loc 1 109 12 is_stmt 1 view .LVU187
 109:Src/eeprom.c  ****       {
 633              		.loc 1 109 15 is_stmt 0 view .LVU188
 634 0046 4EF6EE63 		movw	r3, #61166
 635 004a 9D42     		cmp	r5, r3
 636 004c 13D0     		beq	.L90
ARM GAS  /tmp/ccZ9tIjc.s 			page 25


 132:Src/eeprom.c  ****         /* If erase/program operation was failed, a Flash error code is returned */
 637              		.loc 1 132 9 is_stmt 1 view .LVU189
 132:Src/eeprom.c  ****         /* If erase/program operation was failed, a Flash error code is returned */
 638              		.loc 1 132 23 is_stmt 0 view .LVU190
 639 004e FFF7FEFF 		bl	EE_Format
 640              	.LVL71:
 134:Src/eeprom.c  ****         {
 641              		.loc 1 134 9 is_stmt 1 view .LVU191
 134:Src/eeprom.c  ****         {
 642              		.loc 1 134 12 is_stmt 0 view .LVU192
 643 0052 30BB     		cbnz	r0, .L91
 311:Src/eeprom.c  **** }
 644              		.loc 1 311 10 view .LVU193
 645 0054 0025     		movs	r5, #0
 646              	.LVL72:
 311:Src/eeprom.c  **** }
 647              		.loc 1 311 10 view .LVU194
 648 0056 F2E7     		b	.L55
 649              	.LVL73:
 650              	.L89:
  99:Src/eeprom.c  ****         {
 651              		.loc 1 99 9 is_stmt 1 view .LVU195
  99:Src/eeprom.c  ****         {
 652              		.loc 1 99 13 is_stmt 0 view .LVU196
 653 0058 7848     		ldr	r0, .L108
 654 005a FFF7FEFF 		bl	EE_VerifyPageFullyErased
 655              	.LVL74:
  99:Src/eeprom.c  ****         {
 656              		.loc 1 99 11 view .LVU197
 657 005e 0446     		mov	r4, r0
 658 0060 0028     		cmp	r0, #0
 659 0062 ECD1     		bne	.L55
 101:Src/eeprom.c  ****           /* If erase operation was failed, a Flash error code is returned */
 660              		.loc 1 101 11 is_stmt 1 view .LVU198
 101:Src/eeprom.c  ****           /* If erase operation was failed, a Flash error code is returned */
 661              		.loc 1 101 25 is_stmt 0 view .LVU199
 662 0064 05A9     		add	r1, sp, #20
 663 0066 01A8     		add	r0, sp, #4
 664 0068 FFF7FEFF 		bl	HAL_FLASHEx_Erase
 665              	.LVL75:
 103:Src/eeprom.c  ****           {
 666              		.loc 1 103 11 is_stmt 1 view .LVU200
 103:Src/eeprom.c  ****           {
 667              		.loc 1 103 14 is_stmt 0 view .LVU201
 668 006c 08B9     		cbnz	r0, .L92
 311:Src/eeprom.c  **** }
 669              		.loc 1 311 10 view .LVU202
 670 006e 2546     		mov	r5, r4
 671              	.LVL76:
 311:Src/eeprom.c  **** }
 672              		.loc 1 311 10 view .LVU203
 673 0070 E5E7     		b	.L55
 674              	.LVL77:
 675              	.L92:
 105:Src/eeprom.c  ****           }
 676              		.loc 1 105 13 is_stmt 1 view .LVU204
 105:Src/eeprom.c  ****           }
ARM GAS  /tmp/ccZ9tIjc.s 			page 26


 677              		.loc 1 105 20 is_stmt 0 view .LVU205
 678 0072 85B2     		uxth	r5, r0
 679              	.LVL78:
 105:Src/eeprom.c  ****           }
 680              		.loc 1 105 20 view .LVU206
 681 0074 E3E7     		b	.L55
 682              	.LVL79:
 683              	.L90:
 112:Src/eeprom.c  ****         {
 684              		.loc 1 112 9 is_stmt 1 view .LVU207
 112:Src/eeprom.c  ****         {
 685              		.loc 1 112 13 is_stmt 0 view .LVU208
 686 0076 7148     		ldr	r0, .L108
 687 0078 FFF7FEFF 		bl	EE_VerifyPageFullyErased
 688              	.LVL80:
 112:Src/eeprom.c  ****         {
 689              		.loc 1 112 11 view .LVU209
 690 007c 20B9     		cbnz	r0, .L57
 114:Src/eeprom.c  ****           /* If erase operation was failed, a Flash error code is returned */
 691              		.loc 1 114 11 is_stmt 1 view .LVU210
 114:Src/eeprom.c  ****           /* If erase operation was failed, a Flash error code is returned */
 692              		.loc 1 114 25 is_stmt 0 view .LVU211
 693 007e 05A9     		add	r1, sp, #20
 694 0080 01A8     		add	r0, sp, #4
 695 0082 FFF7FEFF 		bl	HAL_FLASHEx_Erase
 696              	.LVL81:
 116:Src/eeprom.c  ****           {
 697              		.loc 1 116 11 is_stmt 1 view .LVU212
 116:Src/eeprom.c  ****           {
 698              		.loc 1 116 14 is_stmt 0 view .LVU213
 699 0086 40B9     		cbnz	r0, .L93
 700              	.LVL82:
 701              	.L57:
 122:Src/eeprom.c  ****         /* If program operation was failed, a Flash error code is returned */
 702              		.loc 1 122 9 is_stmt 1 view .LVU214
 122:Src/eeprom.c  ****         /* If program operation was failed, a Flash error code is returned */
 703              		.loc 1 122 23 is_stmt 0 view .LVU215
 704 0088 0022     		movs	r2, #0
 705 008a 0023     		movs	r3, #0
 706 008c 6C49     		ldr	r1, .L108+4
 707 008e 0120     		movs	r0, #1
 708 0090 FFF7FEFF 		bl	HAL_FLASH_Program
 709              	.LVL83:
 124:Src/eeprom.c  ****         {
 710              		.loc 1 124 9 is_stmt 1 view .LVU216
 124:Src/eeprom.c  ****         {
 711              		.loc 1 124 12 is_stmt 0 view .LVU217
 712 0094 18B9     		cbnz	r0, .L94
 311:Src/eeprom.c  **** }
 713              		.loc 1 311 10 view .LVU218
 714 0096 0025     		movs	r5, #0
 715              	.LVL84:
 311:Src/eeprom.c  **** }
 716              		.loc 1 311 10 view .LVU219
 717 0098 D1E7     		b	.L55
 718              	.LVL85:
 719              	.L93:
ARM GAS  /tmp/ccZ9tIjc.s 			page 27


 118:Src/eeprom.c  ****           }
 720              		.loc 1 118 13 is_stmt 1 view .LVU220
 118:Src/eeprom.c  ****           }
 721              		.loc 1 118 20 is_stmt 0 view .LVU221
 722 009a 85B2     		uxth	r5, r0
 723              	.LVL86:
 118:Src/eeprom.c  ****           }
 724              		.loc 1 118 20 view .LVU222
 725 009c CFE7     		b	.L55
 726              	.LVL87:
 727              	.L94:
 126:Src/eeprom.c  ****         }
 728              		.loc 1 126 11 is_stmt 1 view .LVU223
 126:Src/eeprom.c  ****         }
 729              		.loc 1 126 18 is_stmt 0 view .LVU224
 730 009e 85B2     		uxth	r5, r0
 731              	.LVL88:
 126:Src/eeprom.c  ****         }
 732              		.loc 1 126 18 view .LVU225
 733 00a0 CDE7     		b	.L55
 734              	.LVL89:
 735              	.L91:
 136:Src/eeprom.c  ****         }
 736              		.loc 1 136 11 is_stmt 1 view .LVU226
 136:Src/eeprom.c  ****         }
 737              		.loc 1 136 18 is_stmt 0 view .LVU227
 738 00a2 85B2     		uxth	r5, r0
 739              	.LVL90:
 136:Src/eeprom.c  ****         }
 740              		.loc 1 136 18 view .LVU228
 741 00a4 CBE7     		b	.L55
 742              	.LVL91:
 743              	.L50:
 142:Src/eeprom.c  ****       {
 744              		.loc 1 142 7 is_stmt 1 view .LVU229
 142:Src/eeprom.c  ****       {
 745              		.loc 1 142 10 is_stmt 0 view .LVU230
 746 00a6 55B3     		cbz	r5, .L75
 189:Src/eeprom.c  ****       {
 747              		.loc 1 189 12 is_stmt 1 view .LVU231
 189:Src/eeprom.c  ****       {
 748              		.loc 1 189 15 is_stmt 0 view .LVU232
 749 00a8 4FF6FF73 		movw	r3, #65535
 750 00ac 9D42     		cmp	r5, r3
 751 00ae 48D0     		beq	.L95
 215:Src/eeprom.c  ****         /* If erase/program operation was failed, a Flash error code is returned */
 752              		.loc 1 215 9 is_stmt 1 view .LVU233
 215:Src/eeprom.c  ****         /* If erase/program operation was failed, a Flash error code is returned */
 753              		.loc 1 215 23 is_stmt 0 view .LVU234
 754 00b0 FFF7FEFF 		bl	EE_Format
 755              	.LVL92:
 217:Src/eeprom.c  ****         {
 756              		.loc 1 217 9 is_stmt 1 view .LVU235
 217:Src/eeprom.c  ****         {
 757              		.loc 1 217 12 is_stmt 0 view .LVU236
 758 00b4 0028     		cmp	r0, #0
 759 00b6 5CD1     		bne	.L96
ARM GAS  /tmp/ccZ9tIjc.s 			page 28


 311:Src/eeprom.c  **** }
 760              		.loc 1 311 10 view .LVU237
 761 00b8 0025     		movs	r5, #0
 762              	.LVL93:
 311:Src/eeprom.c  **** }
 763              		.loc 1 311 10 view .LVU238
 764 00ba C0E7     		b	.L55
 765              	.LVL94:
 766              	.L98:
 149:Src/eeprom.c  ****           }
 767              		.loc 1 149 13 is_stmt 1 view .LVU239
 149:Src/eeprom.c  ****           }
 768              		.loc 1 149 15 is_stmt 0 view .LVU240
 769 00bc 27B2     		sxth	r7, r4
 770              	.LVL95:
 149:Src/eeprom.c  ****           }
 771              		.loc 1 149 15 view .LVU241
 772 00be 0CE0     		b	.L60
 773              	.L61:
 145:Src/eeprom.c  ****         {
 774              		.loc 1 145 46 is_stmt 1 discriminator 2 view .LVU242
 145:Src/eeprom.c  ****         {
 775              		.loc 1 145 52 is_stmt 0 discriminator 2 view .LVU243
 776 00c0 0134     		adds	r4, r4, #1
 777              	.LVL96:
 145:Src/eeprom.c  ****         {
 778              		.loc 1 145 52 discriminator 2 view .LVU244
 779 00c2 A4B2     		uxth	r4, r4
 780              	.LVL97:
 781              	.L58:
 145:Src/eeprom.c  ****         {
 782              		.loc 1 145 26 is_stmt 1 discriminator 1 view .LVU245
 145:Src/eeprom.c  ****         {
 783              		.loc 1 145 9 is_stmt 0 discriminator 1 view .LVU246
 784 00c4 122C     		cmp	r4, #18
 785 00c6 1ED8     		bhi	.L97
 147:Src/eeprom.c  ****           {
 786              		.loc 1 147 11 is_stmt 1 view .LVU247
 147:Src/eeprom.c  ****           {
 787              		.loc 1 147 17 is_stmt 0 view .LVU248
 788 00c8 5C4B     		ldr	r3, .L108
 789 00ca DB88     		ldrh	r3, [r3, #6]
 790 00cc 9BB2     		uxth	r3, r3
 147:Src/eeprom.c  ****           {
 791              		.loc 1 147 60 view .LVU249
 792 00ce 2646     		mov	r6, r4
 147:Src/eeprom.c  ****           {
 793              		.loc 1 147 76 view .LVU250
 794 00d0 5C4A     		ldr	r2, .L108+8
 795 00d2 32F81400 		ldrh	r0, [r2, r4, lsl #1]
 147:Src/eeprom.c  ****           {
 796              		.loc 1 147 14 view .LVU251
 797 00d6 8342     		cmp	r3, r0
 798 00d8 F0D0     		beq	.L98
 799              	.L60:
 151:Src/eeprom.c  ****           {
 800              		.loc 1 151 11 is_stmt 1 view .LVU252
ARM GAS  /tmp/ccZ9tIjc.s 			page 29


 151:Src/eeprom.c  ****           {
 801              		.loc 1 151 14 is_stmt 0 view .LVU253
 802 00da BE42     		cmp	r6, r7
 803 00dc F0D0     		beq	.L61
 154:Src/eeprom.c  ****             /* In case variable corresponding to the virtual address was found */
 804              		.loc 1 154 13 is_stmt 1 view .LVU254
 154:Src/eeprom.c  ****             /* In case variable corresponding to the virtual address was found */
 805              		.loc 1 154 26 is_stmt 0 view .LVU255
 806 00de 5A49     		ldr	r1, .L108+12
 807 00e0 FFF7FEFF 		bl	EE_ReadVariable
 808              	.LVL98:
 156:Src/eeprom.c  ****             {
 809              		.loc 1 156 13 is_stmt 1 view .LVU256
 156:Src/eeprom.c  ****             {
 810              		.loc 1 156 16 is_stmt 0 view .LVU257
 811 00e4 0128     		cmp	r0, #1
 812 00e6 EBD0     		beq	.L61
 159:Src/eeprom.c  ****               /* If program operation was failed, a Flash error code is returned */
 813              		.loc 1 159 15 is_stmt 1 view .LVU258
 159:Src/eeprom.c  ****               /* If program operation was failed, a Flash error code is returned */
 814              		.loc 1 159 30 is_stmt 0 view .LVU259
 815 00e8 574B     		ldr	r3, .L108+12
 816 00ea 1988     		ldrh	r1, [r3]
 817 00ec 554B     		ldr	r3, .L108+8
 818 00ee 33F81600 		ldrh	r0, [r3, r6, lsl #1]
 819              	.LVL99:
 159:Src/eeprom.c  ****               /* If program operation was failed, a Flash error code is returned */
 820              		.loc 1 159 30 view .LVU260
 821 00f2 FFF7FEFF 		bl	EE_VerifyPageFullWriteVariable
 822              	.LVL100:
 161:Src/eeprom.c  ****               {
 823              		.loc 1 161 15 is_stmt 1 view .LVU261
 161:Src/eeprom.c  ****               {
 824              		.loc 1 161 18 is_stmt 0 view .LVU262
 825 00f6 0028     		cmp	r0, #0
 826 00f8 E2D0     		beq	.L61
 163:Src/eeprom.c  ****               }
 827              		.loc 1 163 24 view .LVU263
 828 00fa 0546     		mov	r5, r0
 829              	.LVL101:
 163:Src/eeprom.c  ****               }
 830              		.loc 1 163 24 view .LVU264
 831 00fc 9FE7     		b	.L55
 832              	.LVL102:
 833              	.L75:
 145:Src/eeprom.c  ****         {
 834              		.loc 1 145 21 view .LVU265
 835 00fe 2C46     		mov	r4, r5
  76:Src/eeprom.c  ****   HAL_StatusTypeDef  flashstatus;
 836              		.loc 1 76 11 view .LVU266
 837 0100 4FF0FF37 		mov	r7, #-1
 838 0104 DEE7     		b	.L58
 839              	.LVL103:
 840              	.L97:
 169:Src/eeprom.c  ****         /* If program operation was failed, a Flash error code is returned */
 841              		.loc 1 169 9 is_stmt 1 view .LVU267
 169:Src/eeprom.c  ****         /* If program operation was failed, a Flash error code is returned */
ARM GAS  /tmp/ccZ9tIjc.s 			page 30


 842              		.loc 1 169 23 is_stmt 0 view .LVU268
 843 0106 0022     		movs	r2, #0
 844 0108 0023     		movs	r3, #0
 845 010a 4C49     		ldr	r1, .L108
 846 010c 0120     		movs	r0, #1
 847 010e FFF7FEFF 		bl	HAL_FLASH_Program
 848              	.LVL104:
 171:Src/eeprom.c  ****         {
 849              		.loc 1 171 9 is_stmt 1 view .LVU269
 171:Src/eeprom.c  ****         {
 850              		.loc 1 171 12 is_stmt 0 view .LVU270
 851 0112 08B1     		cbz	r0, .L63
 173:Src/eeprom.c  ****         }
 852              		.loc 1 173 11 is_stmt 1 view .LVU271
 173:Src/eeprom.c  ****         }
 853              		.loc 1 173 18 is_stmt 0 view .LVU272
 854 0114 85B2     		uxth	r5, r0
 855              	.LVL105:
 173:Src/eeprom.c  ****         }
 856              		.loc 1 173 18 view .LVU273
 857 0116 92E7     		b	.L55
 858              	.LVL106:
 859              	.L63:
 175:Src/eeprom.c  ****         s_eraseinit.PageAddress = PAGE1_ID;
 860              		.loc 1 175 9 is_stmt 1 view .LVU274
 175:Src/eeprom.c  ****         s_eraseinit.PageAddress = PAGE1_ID;
 861              		.loc 1 175 33 is_stmt 0 view .LVU275
 862 0118 0023     		movs	r3, #0
 863 011a 0193     		str	r3, [sp, #4]
 176:Src/eeprom.c  ****         s_eraseinit.NbPages     = 1;
 864              		.loc 1 176 9 is_stmt 1 view .LVU276
 176:Src/eeprom.c  ****         s_eraseinit.NbPages     = 1;
 865              		.loc 1 176 33 is_stmt 0 view .LVU277
 866 011c 4B4B     		ldr	r3, .L108+16
 867 011e 0393     		str	r3, [sp, #12]
 177:Src/eeprom.c  ****         /* Erase Page1 */
 868              		.loc 1 177 9 is_stmt 1 view .LVU278
 177:Src/eeprom.c  ****         /* Erase Page1 */
 869              		.loc 1 177 33 is_stmt 0 view .LVU279
 870 0120 0123     		movs	r3, #1
 871 0122 0493     		str	r3, [sp, #16]
 179:Src/eeprom.c  ****         {
 872              		.loc 1 179 9 is_stmt 1 view .LVU280
 179:Src/eeprom.c  ****         {
 873              		.loc 1 179 13 is_stmt 0 view .LVU281
 874 0124 4648     		ldr	r0, .L108+4
 875              	.LVL107:
 179:Src/eeprom.c  ****         {
 876              		.loc 1 179 13 view .LVU282
 877 0126 FFF7FEFF 		bl	EE_VerifyPageFullyErased
 878              	.LVL108:
 179:Src/eeprom.c  ****         {
 879              		.loc 1 179 11 view .LVU283
 880 012a 0446     		mov	r4, r0
 881              	.LVL109:
 179:Src/eeprom.c  ****         {
 882              		.loc 1 179 11 view .LVU284
ARM GAS  /tmp/ccZ9tIjc.s 			page 31


 883 012c 0028     		cmp	r0, #0
 884 012e 86D1     		bne	.L55
 181:Src/eeprom.c  ****           /* If erase operation was failed, a Flash error code is returned */
 885              		.loc 1 181 11 is_stmt 1 view .LVU285
 181:Src/eeprom.c  ****           /* If erase operation was failed, a Flash error code is returned */
 886              		.loc 1 181 25 is_stmt 0 view .LVU286
 887 0130 05A9     		add	r1, sp, #20
 888 0132 01A8     		add	r0, sp, #4
 889 0134 FFF7FEFF 		bl	HAL_FLASHEx_Erase
 890              	.LVL110:
 183:Src/eeprom.c  ****           {
 891              		.loc 1 183 11 is_stmt 1 view .LVU287
 183:Src/eeprom.c  ****           {
 892              		.loc 1 183 14 is_stmt 0 view .LVU288
 893 0138 08B9     		cbnz	r0, .L99
 311:Src/eeprom.c  **** }
 894              		.loc 1 311 10 view .LVU289
 895 013a 2546     		mov	r5, r4
 896              	.LVL111:
 311:Src/eeprom.c  **** }
 897              		.loc 1 311 10 view .LVU290
 898 013c 7FE7     		b	.L55
 899              	.LVL112:
 900              	.L99:
 185:Src/eeprom.c  ****           }
 901              		.loc 1 185 13 is_stmt 1 view .LVU291
 185:Src/eeprom.c  ****           }
 902              		.loc 1 185 20 is_stmt 0 view .LVU292
 903 013e 85B2     		uxth	r5, r0
 904              	.LVL113:
 185:Src/eeprom.c  ****           }
 905              		.loc 1 185 20 view .LVU293
 906 0140 7DE7     		b	.L55
 907              	.LVL114:
 908              	.L95:
 191:Src/eeprom.c  ****         s_eraseinit.PageAddress = PAGE1_ID;
 909              		.loc 1 191 9 is_stmt 1 view .LVU294
 192:Src/eeprom.c  ****         s_eraseinit.NbPages     = 1;
 910              		.loc 1 192 9 view .LVU295
 192:Src/eeprom.c  ****         s_eraseinit.NbPages     = 1;
 911              		.loc 1 192 33 is_stmt 0 view .LVU296
 912 0142 424B     		ldr	r3, .L108+16
 913 0144 0393     		str	r3, [sp, #12]
 193:Src/eeprom.c  ****         /* Erase Page1 */
 914              		.loc 1 193 9 is_stmt 1 view .LVU297
 195:Src/eeprom.c  ****         {
 915              		.loc 1 195 9 view .LVU298
 195:Src/eeprom.c  ****         {
 916              		.loc 1 195 13 is_stmt 0 view .LVU299
 917 0146 3E48     		ldr	r0, .L108+4
 918 0148 FFF7FEFF 		bl	EE_VerifyPageFullyErased
 919              	.LVL115:
 195:Src/eeprom.c  ****         {
 920              		.loc 1 195 11 view .LVU300
 921 014c 20B9     		cbnz	r0, .L65
 197:Src/eeprom.c  ****           /* If erase operation was failed, a Flash error code is returned */
 922              		.loc 1 197 11 is_stmt 1 view .LVU301
ARM GAS  /tmp/ccZ9tIjc.s 			page 32


 197:Src/eeprom.c  ****           /* If erase operation was failed, a Flash error code is returned */
 923              		.loc 1 197 25 is_stmt 0 view .LVU302
 924 014e 05A9     		add	r1, sp, #20
 925 0150 01A8     		add	r0, sp, #4
 926 0152 FFF7FEFF 		bl	HAL_FLASHEx_Erase
 927              	.LVL116:
 199:Src/eeprom.c  ****           {
 928              		.loc 1 199 11 is_stmt 1 view .LVU303
 199:Src/eeprom.c  ****           {
 929              		.loc 1 199 14 is_stmt 0 view .LVU304
 930 0156 40B9     		cbnz	r0, .L100
 931              	.LVL117:
 932              	.L65:
 205:Src/eeprom.c  ****         /* If program operation was failed, a Flash error code is returned */
 933              		.loc 1 205 9 is_stmt 1 view .LVU305
 205:Src/eeprom.c  ****         /* If program operation was failed, a Flash error code is returned */
 934              		.loc 1 205 23 is_stmt 0 view .LVU306
 935 0158 0022     		movs	r2, #0
 936 015a 0023     		movs	r3, #0
 937 015c 3749     		ldr	r1, .L108
 938 015e 0120     		movs	r0, #1
 939 0160 FFF7FEFF 		bl	HAL_FLASH_Program
 940              	.LVL118:
 207:Src/eeprom.c  ****         {
 941              		.loc 1 207 9 is_stmt 1 view .LVU307
 207:Src/eeprom.c  ****         {
 942              		.loc 1 207 12 is_stmt 0 view .LVU308
 943 0164 18B9     		cbnz	r0, .L101
 311:Src/eeprom.c  **** }
 944              		.loc 1 311 10 view .LVU309
 945 0166 0025     		movs	r5, #0
 946              	.LVL119:
 311:Src/eeprom.c  **** }
 947              		.loc 1 311 10 view .LVU310
 948 0168 69E7     		b	.L55
 949              	.LVL120:
 950              	.L100:
 201:Src/eeprom.c  ****           }
 951              		.loc 1 201 13 is_stmt 1 view .LVU311
 201:Src/eeprom.c  ****           }
 952              		.loc 1 201 20 is_stmt 0 view .LVU312
 953 016a 85B2     		uxth	r5, r0
 954              	.LVL121:
 201:Src/eeprom.c  ****           }
 955              		.loc 1 201 20 view .LVU313
 956 016c 67E7     		b	.L55
 957              	.LVL122:
 958              	.L101:
 209:Src/eeprom.c  ****         }
 959              		.loc 1 209 11 is_stmt 1 view .LVU314
 209:Src/eeprom.c  ****         }
 960              		.loc 1 209 18 is_stmt 0 view .LVU315
 961 016e 85B2     		uxth	r5, r0
 962              	.LVL123:
 209:Src/eeprom.c  ****         }
 963              		.loc 1 209 18 view .LVU316
 964 0170 65E7     		b	.L55
ARM GAS  /tmp/ccZ9tIjc.s 			page 33


 965              	.LVL124:
 966              	.L96:
 219:Src/eeprom.c  ****         }
 967              		.loc 1 219 11 is_stmt 1 view .LVU317
 219:Src/eeprom.c  ****         }
 968              		.loc 1 219 18 is_stmt 0 view .LVU318
 969 0172 85B2     		uxth	r5, r0
 970              	.LVL125:
 219:Src/eeprom.c  ****         }
 971              		.loc 1 219 18 view .LVU319
 972 0174 63E7     		b	.L55
 973              	.LVL126:
 974              	.L87:
 225:Src/eeprom.c  ****       {
 975              		.loc 1 225 7 is_stmt 1 view .LVU320
 225:Src/eeprom.c  ****       {
 976              		.loc 1 225 10 is_stmt 0 view .LVU321
 977 0176 3DB1     		cbz	r5, .L102
 235:Src/eeprom.c  ****       {
 978              		.loc 1 235 12 is_stmt 1 view .LVU322
 235:Src/eeprom.c  ****       {
 979              		.loc 1 235 15 is_stmt 0 view .LVU323
 980 0178 4FF6FF73 		movw	r3, #65535
 981 017c 9D42     		cmp	r5, r3
 982 017e 0AD0     		beq	.L103
 254:Src/eeprom.c  ****         {
 983              		.loc 1 254 21 view .LVU324
 984 0180 3446     		mov	r4, r6
  76:Src/eeprom.c  ****   HAL_StatusTypeDef  flashstatus;
 985              		.loc 1 76 11 view .LVU325
 986 0182 4FF0FF37 		mov	r7, #-1
 987 0186 1CE0     		b	.L67
 988              	.L102:
 228:Src/eeprom.c  ****         /* If erase/program operation was failed, a Flash error code is returned */
 989              		.loc 1 228 9 is_stmt 1 view .LVU326
 228:Src/eeprom.c  ****         /* If erase/program operation was failed, a Flash error code is returned */
 990              		.loc 1 228 23 is_stmt 0 view .LVU327
 991 0188 FFF7FEFF 		bl	EE_Format
 992              	.LVL127:
 230:Src/eeprom.c  ****         {
 993              		.loc 1 230 9 is_stmt 1 view .LVU328
 230:Src/eeprom.c  ****         {
 994              		.loc 1 230 12 is_stmt 0 view .LVU329
 995 018c 0028     		cmp	r0, #0
 996 018e 3FF456AF 		beq	.L55
 232:Src/eeprom.c  ****         }
 997              		.loc 1 232 11 is_stmt 1 view .LVU330
 232:Src/eeprom.c  ****         }
 998              		.loc 1 232 18 is_stmt 0 view .LVU331
 999 0192 85B2     		uxth	r5, r0
 1000              	.LVL128:
 232:Src/eeprom.c  ****         }
 1001              		.loc 1 232 18 view .LVU332
 1002 0194 53E7     		b	.L55
 1003              	.LVL129:
 1004              	.L103:
 237:Src/eeprom.c  ****         s_eraseinit.PageAddress = PAGE1_ID;
ARM GAS  /tmp/ccZ9tIjc.s 			page 34


 1005              		.loc 1 237 9 is_stmt 1 view .LVU333
 238:Src/eeprom.c  ****         s_eraseinit.NbPages     = 1;
 1006              		.loc 1 238 9 view .LVU334
 238:Src/eeprom.c  ****         s_eraseinit.NbPages     = 1;
 1007              		.loc 1 238 33 is_stmt 0 view .LVU335
 1008 0196 2D4B     		ldr	r3, .L108+16
 1009 0198 0393     		str	r3, [sp, #12]
 239:Src/eeprom.c  ****         /* Erase Page1 */
 1010              		.loc 1 239 9 is_stmt 1 view .LVU336
 241:Src/eeprom.c  ****         {
 1011              		.loc 1 241 9 view .LVU337
 241:Src/eeprom.c  ****         {
 1012              		.loc 1 241 13 is_stmt 0 view .LVU338
 1013 019a 2948     		ldr	r0, .L108+4
 1014 019c FFF7FEFF 		bl	EE_VerifyPageFullyErased
 1015              	.LVL130:
 241:Src/eeprom.c  ****         {
 1016              		.loc 1 241 11 view .LVU339
 1017 01a0 0546     		mov	r5, r0
 1018              	.LVL131:
 241:Src/eeprom.c  ****         {
 1019              		.loc 1 241 11 view .LVU340
 1020 01a2 08B1     		cbz	r0, .L104
 311:Src/eeprom.c  **** }
 1021              		.loc 1 311 10 view .LVU341
 1022 01a4 3546     		mov	r5, r6
 1023 01a6 4AE7     		b	.L55
 1024              	.L104:
 243:Src/eeprom.c  ****           /* If erase operation was failed, a Flash error code is returned */
 1025              		.loc 1 243 11 is_stmt 1 view .LVU342
 243:Src/eeprom.c  ****           /* If erase operation was failed, a Flash error code is returned */
 1026              		.loc 1 243 25 is_stmt 0 view .LVU343
 1027 01a8 05A9     		add	r1, sp, #20
 1028 01aa 01A8     		add	r0, sp, #4
 1029 01ac FFF7FEFF 		bl	HAL_FLASHEx_Erase
 1030              	.LVL132:
 245:Src/eeprom.c  ****           {
 1031              		.loc 1 245 11 is_stmt 1 view .LVU344
 245:Src/eeprom.c  ****           {
 1032              		.loc 1 245 14 is_stmt 0 view .LVU345
 1033 01b0 0028     		cmp	r0, #0
 1034 01b2 3FF444AF 		beq	.L55
 247:Src/eeprom.c  ****           }
 1035              		.loc 1 247 13 is_stmt 1 view .LVU346
 247:Src/eeprom.c  ****           }
 1036              		.loc 1 247 20 is_stmt 0 view .LVU347
 1037 01b6 85B2     		uxth	r5, r0
 1038 01b8 41E7     		b	.L55
 1039              	.LVL133:
 1040              	.L106:
 258:Src/eeprom.c  ****           }
 1041              		.loc 1 258 13 is_stmt 1 view .LVU348
 258:Src/eeprom.c  ****           }
 1042              		.loc 1 258 15 is_stmt 0 view .LVU349
 1043 01ba 27B2     		sxth	r7, r4
 1044              	.LVL134:
 258:Src/eeprom.c  ****           }
ARM GAS  /tmp/ccZ9tIjc.s 			page 35


 1045              		.loc 1 258 15 view .LVU350
 1046 01bc 0CE0     		b	.L68
 1047              	.L69:
 254:Src/eeprom.c  ****         {
 1048              		.loc 1 254 46 is_stmt 1 discriminator 2 view .LVU351
 254:Src/eeprom.c  ****         {
 1049              		.loc 1 254 52 is_stmt 0 discriminator 2 view .LVU352
 1050 01be 0134     		adds	r4, r4, #1
 1051              	.LVL135:
 254:Src/eeprom.c  ****         {
 1052              		.loc 1 254 52 discriminator 2 view .LVU353
 1053 01c0 A4B2     		uxth	r4, r4
 1054              	.LVL136:
 1055              	.L67:
 254:Src/eeprom.c  ****         {
 1056              		.loc 1 254 26 is_stmt 1 discriminator 1 view .LVU354
 254:Src/eeprom.c  ****         {
 1057              		.loc 1 254 9 is_stmt 0 discriminator 1 view .LVU355
 1058 01c2 122C     		cmp	r4, #18
 1059 01c4 1AD8     		bhi	.L105
 256:Src/eeprom.c  ****           {
 1060              		.loc 1 256 11 is_stmt 1 view .LVU356
 256:Src/eeprom.c  ****           {
 1061              		.loc 1 256 16 is_stmt 0 view .LVU357
 1062 01c6 1E4B     		ldr	r3, .L108+4
 1063 01c8 DB88     		ldrh	r3, [r3, #6]
 1064 01ca 9BB2     		uxth	r3, r3
 256:Src/eeprom.c  ****           {
 1065              		.loc 1 256 59 view .LVU358
 1066 01cc 2546     		mov	r5, r4
 256:Src/eeprom.c  ****           {
 1067              		.loc 1 256 75 view .LVU359
 1068 01ce 1D4A     		ldr	r2, .L108+8
 1069 01d0 32F81400 		ldrh	r0, [r2, r4, lsl #1]
 256:Src/eeprom.c  ****           {
 1070              		.loc 1 256 14 view .LVU360
 1071 01d4 8342     		cmp	r3, r0
 1072 01d6 F0D0     		beq	.L106
 1073              	.L68:
 260:Src/eeprom.c  ****           {
 1074              		.loc 1 260 11 is_stmt 1 view .LVU361
 260:Src/eeprom.c  ****           {
 1075              		.loc 1 260 14 is_stmt 0 view .LVU362
 1076 01d8 BD42     		cmp	r5, r7
 1077 01da F0D0     		beq	.L69
 263:Src/eeprom.c  ****             /* In case variable corresponding to the virtual address was found */
 1078              		.loc 1 263 13 is_stmt 1 view .LVU363
 263:Src/eeprom.c  ****             /* In case variable corresponding to the virtual address was found */
 1079              		.loc 1 263 26 is_stmt 0 view .LVU364
 1080 01dc 1A49     		ldr	r1, .L108+12
 1081 01de FFF7FEFF 		bl	EE_ReadVariable
 1082              	.LVL137:
 265:Src/eeprom.c  ****             {
 1083              		.loc 1 265 13 is_stmt 1 view .LVU365
 265:Src/eeprom.c  ****             {
 1084              		.loc 1 265 16 is_stmt 0 view .LVU366
 1085 01e2 0128     		cmp	r0, #1
ARM GAS  /tmp/ccZ9tIjc.s 			page 36


 1086 01e4 EBD0     		beq	.L69
 268:Src/eeprom.c  ****               /* If program operation was failed, a Flash error code is returned */
 1087              		.loc 1 268 15 is_stmt 1 view .LVU367
 268:Src/eeprom.c  ****               /* If program operation was failed, a Flash error code is returned */
 1088              		.loc 1 268 30 is_stmt 0 view .LVU368
 1089 01e6 184B     		ldr	r3, .L108+12
 1090 01e8 1988     		ldrh	r1, [r3]
 1091 01ea 164B     		ldr	r3, .L108+8
 1092 01ec 33F81500 		ldrh	r0, [r3, r5, lsl #1]
 1093              	.LVL138:
 268:Src/eeprom.c  ****               /* If program operation was failed, a Flash error code is returned */
 1094              		.loc 1 268 30 view .LVU369
 1095 01f0 FFF7FEFF 		bl	EE_VerifyPageFullWriteVariable
 1096              	.LVL139:
 270:Src/eeprom.c  ****               {
 1097              		.loc 1 270 15 is_stmt 1 view .LVU370
 270:Src/eeprom.c  ****               {
 1098              		.loc 1 270 18 is_stmt 0 view .LVU371
 1099 01f4 0546     		mov	r5, r0
 1100 01f6 0028     		cmp	r0, #0
 1101 01f8 E1D0     		beq	.L69
 1102 01fa 20E7     		b	.L55
 1103              	.LVL140:
 1104              	.L105:
 278:Src/eeprom.c  ****         /* If program operation was failed, a Flash error code is returned */
 1105              		.loc 1 278 9 is_stmt 1 view .LVU372
 278:Src/eeprom.c  ****         /* If program operation was failed, a Flash error code is returned */
 1106              		.loc 1 278 23 is_stmt 0 view .LVU373
 1107 01fc 0022     		movs	r2, #0
 1108 01fe 0023     		movs	r3, #0
 1109 0200 0F49     		ldr	r1, .L108+4
 1110 0202 0120     		movs	r0, #1
 1111 0204 FFF7FEFF 		bl	HAL_FLASH_Program
 1112              	.LVL141:
 280:Src/eeprom.c  ****         {
 1113              		.loc 1 280 9 is_stmt 1 view .LVU374
 280:Src/eeprom.c  ****         {
 1114              		.loc 1 280 12 is_stmt 0 view .LVU375
 1115 0208 08B1     		cbz	r0, .L71
 282:Src/eeprom.c  ****         }
 1116              		.loc 1 282 11 is_stmt 1 view .LVU376
 282:Src/eeprom.c  ****         }
 1117              		.loc 1 282 18 is_stmt 0 view .LVU377
 1118 020a 85B2     		uxth	r5, r0
 1119 020c 17E7     		b	.L55
 1120              	.L71:
 284:Src/eeprom.c  ****         s_eraseinit.PageAddress = PAGE0_ID;
 1121              		.loc 1 284 9 is_stmt 1 view .LVU378
 284:Src/eeprom.c  ****         s_eraseinit.PageAddress = PAGE0_ID;
 1122              		.loc 1 284 33 is_stmt 0 view .LVU379
 1123 020e 0023     		movs	r3, #0
 1124 0210 0193     		str	r3, [sp, #4]
 285:Src/eeprom.c  ****         s_eraseinit.NbPages     = 1;
 1125              		.loc 1 285 9 is_stmt 1 view .LVU380
 285:Src/eeprom.c  ****         s_eraseinit.NbPages     = 1;
 1126              		.loc 1 285 33 is_stmt 0 view .LVU381
 1127 0212 0A48     		ldr	r0, .L108
ARM GAS  /tmp/ccZ9tIjc.s 			page 37


 1128              	.LVL142:
 285:Src/eeprom.c  ****         s_eraseinit.NbPages     = 1;
 1129              		.loc 1 285 33 view .LVU382
 1130 0214 0390     		str	r0, [sp, #12]
 286:Src/eeprom.c  ****         /* Erase Page0 */
 1131              		.loc 1 286 9 is_stmt 1 view .LVU383
 286:Src/eeprom.c  ****         /* Erase Page0 */
 1132              		.loc 1 286 33 is_stmt 0 view .LVU384
 1133 0216 0123     		movs	r3, #1
 1134 0218 0493     		str	r3, [sp, #16]
 288:Src/eeprom.c  ****         {
 1135              		.loc 1 288 9 is_stmt 1 view .LVU385
 288:Src/eeprom.c  ****         {
 1136              		.loc 1 288 13 is_stmt 0 view .LVU386
 1137 021a FFF7FEFF 		bl	EE_VerifyPageFullyErased
 1138              	.LVL143:
 288:Src/eeprom.c  ****         {
 1139              		.loc 1 288 11 view .LVU387
 1140 021e 0546     		mov	r5, r0
 1141 0220 08B1     		cbz	r0, .L107
 311:Src/eeprom.c  **** }
 1142              		.loc 1 311 10 view .LVU388
 1143 0222 3546     		mov	r5, r6
 1144 0224 0BE7     		b	.L55
 1145              	.L107:
 290:Src/eeprom.c  ****           /* If erase operation was failed, a Flash error code is returned */
 1146              		.loc 1 290 11 is_stmt 1 view .LVU389
 290:Src/eeprom.c  ****           /* If erase operation was failed, a Flash error code is returned */
 1147              		.loc 1 290 25 is_stmt 0 view .LVU390
 1148 0226 05A9     		add	r1, sp, #20
 1149 0228 01A8     		add	r0, sp, #4
 1150 022a FFF7FEFF 		bl	HAL_FLASHEx_Erase
 1151              	.LVL144:
 292:Src/eeprom.c  ****           {
 1152              		.loc 1 292 11 is_stmt 1 view .LVU391
 292:Src/eeprom.c  ****           {
 1153              		.loc 1 292 14 is_stmt 0 view .LVU392
 1154 022e 0028     		cmp	r0, #0
 1155 0230 3FF405AF 		beq	.L55
 294:Src/eeprom.c  ****           }
 1156              		.loc 1 294 13 is_stmt 1 view .LVU393
 294:Src/eeprom.c  ****           }
 1157              		.loc 1 294 20 is_stmt 0 view .LVU394
 1158 0234 85B2     		uxth	r5, r0
 1159 0236 02E7     		b	.L55
 1160              	.LVL145:
 1161              	.L88:
 306:Src/eeprom.c  ****       }
 1162              		.loc 1 306 9 is_stmt 1 view .LVU395
 306:Src/eeprom.c  ****       }
 1163              		.loc 1 306 16 is_stmt 0 view .LVU396
 1164 0238 85B2     		uxth	r5, r0
 1165              	.LVL146:
 306:Src/eeprom.c  ****       }
 1166              		.loc 1 306 16 view .LVU397
 1167 023a 00E7     		b	.L55
 1168              	.L109:
ARM GAS  /tmp/ccZ9tIjc.s 			page 38


 1169              		.align	2
 1170              	.L108:
 1171 023c 00000108 		.word	134283264
 1172 0240 00000208 		.word	134348800
 1173 0244 00000000 		.word	VirtAddVarTab
 1174 0248 00000000 		.word	.LANCHOR0
 1175 024c 00800108 		.word	134316032
 1176              		.cfi_endproc
 1177              	.LFE66:
 1179              		.section	.text.EE_PageTransfer,"ax",%progbits
 1180              		.align	1
 1181              		.syntax unified
 1182              		.thumb
 1183              		.thumb_func
 1184              		.fpu softvfp
 1186              	EE_PageTransfer:
 1187              	.LVL147:
 1188              	.LFB73:
 617:Src/eeprom.c  **** 
 618:Src/eeprom.c  **** /**
 619:Src/eeprom.c  ****   * @brief  Transfers last updated variables data from the full Page to
 620:Src/eeprom.c  ****   *   an empty one.
 621:Src/eeprom.c  ****   * @param  VirtAddress: 16 bit virtual address of the variable
 622:Src/eeprom.c  ****   * @param  Data: 16 bit data to be written as variable value
 623:Src/eeprom.c  ****   * @retval Success or error status:
 624:Src/eeprom.c  ****   *           - FLASH_COMPLETE: on success
 625:Src/eeprom.c  ****   *           - PAGE_FULL: if valid page is full
 626:Src/eeprom.c  ****   *           - NO_VALID_PAGE: if no valid page was found
 627:Src/eeprom.c  ****   *           - Flash error code: on write Flash error
 628:Src/eeprom.c  ****   */
 629:Src/eeprom.c  **** static uint16_t EE_PageTransfer(uint16_t VirtAddress, uint16_t Data)
 630:Src/eeprom.c  **** {
 1189              		.loc 1 630 1 is_stmt 1 view -0
 1190              		.cfi_startproc
 1191              		@ args = 0, pretend = 0, frame = 24
 1192              		@ frame_needed = 0, uses_anonymous_args = 0
 1193              		.loc 1 630 1 is_stmt 0 view .LVU399
 1194 0000 2DE9F041 		push	{r4, r5, r6, r7, r8, lr}
 1195              	.LCFI10:
 1196              		.cfi_def_cfa_offset 24
 1197              		.cfi_offset 4, -24
 1198              		.cfi_offset 5, -20
 1199              		.cfi_offset 6, -16
 1200              		.cfi_offset 7, -12
 1201              		.cfi_offset 8, -8
 1202              		.cfi_offset 14, -4
 1203 0004 86B0     		sub	sp, sp, #24
 1204              	.LCFI11:
 1205              		.cfi_def_cfa_offset 48
 1206 0006 0546     		mov	r5, r0
 1207 0008 0E46     		mov	r6, r1
 631:Src/eeprom.c  ****   HAL_StatusTypeDef flashstatus = HAL_OK;
 1208              		.loc 1 631 3 is_stmt 1 view .LVU400
 1209              	.LVL148:
 632:Src/eeprom.c  ****   uint32_t newpageaddress = EEPROM_START_ADDRESS;
 1210              		.loc 1 632 3 view .LVU401
 633:Src/eeprom.c  ****   uint32_t oldpageid = 0;
ARM GAS  /tmp/ccZ9tIjc.s 			page 39


 1211              		.loc 1 633 3 view .LVU402
 634:Src/eeprom.c  ****   uint16_t validpage = PAGE0, varidx = 0;
 1212              		.loc 1 634 3 view .LVU403
 635:Src/eeprom.c  ****   uint16_t eepromstatus = 0, readstatus = 0;
 1213              		.loc 1 635 3 view .LVU404
 636:Src/eeprom.c  ****   uint32_t page_error = 0;
 1214              		.loc 1 636 3 view .LVU405
 1215              		.loc 1 636 12 is_stmt 0 view .LVU406
 1216 000a 0020     		movs	r0, #0
 1217              	.LVL149:
 1218              		.loc 1 636 12 view .LVU407
 1219 000c 0590     		str	r0, [sp, #20]
 637:Src/eeprom.c  ****   FLASH_EraseInitTypeDef s_eraseinit;
 1220              		.loc 1 637 3 is_stmt 1 view .LVU408
 638:Src/eeprom.c  **** 
 639:Src/eeprom.c  ****   /* Get active Page for read operation */
 640:Src/eeprom.c  ****   validpage = EE_FindValidPage(READ_FROM_VALID_PAGE);
 1221              		.loc 1 640 3 view .LVU409
 1222              		.loc 1 640 15 is_stmt 0 view .LVU410
 1223 000e FFF7FEFF 		bl	EE_FindValidPage
 1224              	.LVL150:
 641:Src/eeprom.c  **** 
 642:Src/eeprom.c  ****   if (validpage == PAGE1)       /* Page1 valid */
 1225              		.loc 1 642 3 is_stmt 1 view .LVU411
 1226              		.loc 1 642 6 is_stmt 0 view .LVU412
 1227 0012 4028     		cmp	r0, #64
 1228 0014 11D0     		beq	.L119
 643:Src/eeprom.c  ****   {
 644:Src/eeprom.c  ****     /* New page address where variable will be moved to */
 645:Src/eeprom.c  ****     newpageaddress = PAGE0_BASE_ADDRESS;
 646:Src/eeprom.c  **** 
 647:Src/eeprom.c  ****     /* Old page ID where variable will be taken from */
 648:Src/eeprom.c  ****     oldpageid = PAGE1_ID;
 649:Src/eeprom.c  ****   }
 650:Src/eeprom.c  ****   else if (validpage == PAGE0)  /* Page0 valid */
 1229              		.loc 1 650 8 is_stmt 1 view .LVU413
 1230              		.loc 1 650 11 is_stmt 0 view .LVU414
 1231 0016 0028     		cmp	r0, #0
 1232 0018 4BD1     		bne	.L120
 651:Src/eeprom.c  ****   {
 652:Src/eeprom.c  ****     /* New page address  where variable will be moved to */
 653:Src/eeprom.c  ****     newpageaddress = PAGE1_BASE_ADDRESS;
 654:Src/eeprom.c  **** 
 655:Src/eeprom.c  ****     /* Old page ID where variable will be taken from */
 656:Src/eeprom.c  ****     oldpageid = PAGE0_ID;
 1233              		.loc 1 656 15 view .LVU415
 1234 001a DFF89C80 		ldr	r8, .L125
 653:Src/eeprom.c  **** 
 1235              		.loc 1 653 20 view .LVU416
 1236 001e 274F     		ldr	r7, .L125+4
 1237              	.L111:
 1238              	.LVL151:
 657:Src/eeprom.c  ****   }
 658:Src/eeprom.c  ****   else
 659:Src/eeprom.c  ****   {
 660:Src/eeprom.c  ****     return NO_VALID_PAGE;       /* No valid Page */
 661:Src/eeprom.c  ****   }
ARM GAS  /tmp/ccZ9tIjc.s 			page 40


 662:Src/eeprom.c  **** 
 663:Src/eeprom.c  ****   /* Set the new Page status to RECEIVE_DATA status */
 664:Src/eeprom.c  ****   flashstatus = HAL_FLASH_Program(FLASH_TYPEPROGRAM_HALFWORD, newpageaddress, RECEIVE_DATA);
 1239              		.loc 1 664 3 is_stmt 1 view .LVU417
 1240              		.loc 1 664 17 is_stmt 0 view .LVU418
 1241 0020 4EF6EE62 		movw	r2, #61166
 1242 0024 0023     		movs	r3, #0
 1243 0026 3946     		mov	r1, r7
 1244 0028 0120     		movs	r0, #1
 1245              	.LVL152:
 1246              		.loc 1 664 17 view .LVU419
 1247 002a FFF7FEFF 		bl	HAL_FLASH_Program
 1248              	.LVL153:
 665:Src/eeprom.c  ****   /* If program operation was failed, a Flash error code is returned */
 666:Src/eeprom.c  ****   if (flashstatus != HAL_OK)
 1249              		.loc 1 666 3 is_stmt 1 view .LVU420
 1250              		.loc 1 666 6 is_stmt 0 view .LVU421
 1251 002e 40B1     		cbz	r0, .L113
 667:Src/eeprom.c  ****   {
 668:Src/eeprom.c  ****     return flashstatus;
 1252              		.loc 1 668 5 is_stmt 1 view .LVU422
 1253              		.loc 1 668 12 is_stmt 0 view .LVU423
 1254 0030 84B2     		uxth	r4, r0
 1255              	.LVL154:
 1256              	.L112:
 669:Src/eeprom.c  ****   }
 670:Src/eeprom.c  **** 
 671:Src/eeprom.c  ****   /* Write the variable passed as parameter in the new active page */
 672:Src/eeprom.c  ****   eepromstatus = EE_VerifyPageFullWriteVariable(VirtAddress, Data);
 673:Src/eeprom.c  ****   /* If program operation was failed, a Flash error code is returned */
 674:Src/eeprom.c  ****   if (eepromstatus != HAL_OK)
 675:Src/eeprom.c  ****   {
 676:Src/eeprom.c  ****     return eepromstatus;
 677:Src/eeprom.c  ****   }
 678:Src/eeprom.c  **** 
 679:Src/eeprom.c  ****   /* Transfer process: transfer variables from old to the new active page */
 680:Src/eeprom.c  ****   for (varidx = 0; varidx < NB_OF_VAR; varidx++)
 681:Src/eeprom.c  ****   {
 682:Src/eeprom.c  ****     if (VirtAddVarTab[varidx] != VirtAddress)  /* Check each variable except the one passed as para
 683:Src/eeprom.c  ****     {
 684:Src/eeprom.c  ****       /* Read the other last variable updates */
 685:Src/eeprom.c  ****       readstatus = EE_ReadVariable(VirtAddVarTab[varidx], &DataVar);
 686:Src/eeprom.c  ****       /* In case variable corresponding to the virtual address was found */
 687:Src/eeprom.c  ****       if (readstatus != 0x1)
 688:Src/eeprom.c  ****       {
 689:Src/eeprom.c  ****         /* Transfer the variable to the new active page */
 690:Src/eeprom.c  ****         eepromstatus = EE_VerifyPageFullWriteVariable(VirtAddVarTab[varidx], DataVar);
 691:Src/eeprom.c  ****         /* If program operation was failed, a Flash error code is returned */
 692:Src/eeprom.c  ****         if (eepromstatus != HAL_OK)
 693:Src/eeprom.c  ****         {
 694:Src/eeprom.c  ****           return eepromstatus;
 695:Src/eeprom.c  ****         }
 696:Src/eeprom.c  ****       }
 697:Src/eeprom.c  ****     }
 698:Src/eeprom.c  ****   }
 699:Src/eeprom.c  **** 
 700:Src/eeprom.c  ****   s_eraseinit.TypeErase   = FLASH_TYPEERASE_PAGES;
ARM GAS  /tmp/ccZ9tIjc.s 			page 41


 701:Src/eeprom.c  ****   s_eraseinit.PageAddress = oldpageid;
 702:Src/eeprom.c  ****   s_eraseinit.NbPages     = 1;
 703:Src/eeprom.c  **** 
 704:Src/eeprom.c  ****   /* Erase the old Page: Set old Page status to ERASED status */
 705:Src/eeprom.c  ****   flashstatus = HAL_FLASHEx_Erase(&s_eraseinit, &page_error);
 706:Src/eeprom.c  ****   /* If erase operation was failed, a Flash error code is returned */
 707:Src/eeprom.c  ****   if (flashstatus != HAL_OK)
 708:Src/eeprom.c  ****   {
 709:Src/eeprom.c  ****     return flashstatus;
 710:Src/eeprom.c  ****   }
 711:Src/eeprom.c  **** 
 712:Src/eeprom.c  ****   /* Set new Page status to VALID_PAGE status */
 713:Src/eeprom.c  ****   flashstatus = HAL_FLASH_Program(FLASH_TYPEPROGRAM_HALFWORD, newpageaddress, VALID_PAGE);
 714:Src/eeprom.c  ****   /* If program operation was failed, a Flash error code is returned */
 715:Src/eeprom.c  ****   if (flashstatus != HAL_OK)
 716:Src/eeprom.c  ****   {
 717:Src/eeprom.c  ****     return flashstatus;
 718:Src/eeprom.c  ****   }
 719:Src/eeprom.c  **** 
 720:Src/eeprom.c  **** 
 721:Src/eeprom.c  **** 
 722:Src/eeprom.c  ****   /* Return last operation flash status */
 723:Src/eeprom.c  ****   return flashstatus;
 724:Src/eeprom.c  **** }
 1257              		.loc 1 724 1 view .LVU424
 1258 0032 2046     		mov	r0, r4
 1259 0034 06B0     		add	sp, sp, #24
 1260              	.LCFI12:
 1261              		.cfi_remember_state
 1262              		.cfi_def_cfa_offset 24
 1263              		@ sp needed
 1264 0036 BDE8F081 		pop	{r4, r5, r6, r7, r8, pc}
 1265              	.LVL155:
 1266              	.L119:
 1267              	.LCFI13:
 1268              		.cfi_restore_state
 648:Src/eeprom.c  ****   }
 1269              		.loc 1 648 15 view .LVU425
 1270 003a DFF88480 		ldr	r8, .L125+8
 645:Src/eeprom.c  **** 
 1271              		.loc 1 645 20 view .LVU426
 1272 003e 1E4F     		ldr	r7, .L125
 1273 0040 EEE7     		b	.L111
 1274              	.LVL156:
 1275              	.L113:
 672:Src/eeprom.c  ****   /* If program operation was failed, a Flash error code is returned */
 1276              		.loc 1 672 3 is_stmt 1 view .LVU427
 672:Src/eeprom.c  ****   /* If program operation was failed, a Flash error code is returned */
 1277              		.loc 1 672 18 is_stmt 0 view .LVU428
 1278 0042 3146     		mov	r1, r6
 1279 0044 2846     		mov	r0, r5
 1280              	.LVL157:
 672:Src/eeprom.c  ****   /* If program operation was failed, a Flash error code is returned */
 1281              		.loc 1 672 18 view .LVU429
 1282 0046 FFF7FEFF 		bl	EE_VerifyPageFullWriteVariable
 1283              	.LVL158:
 674:Src/eeprom.c  ****   {
ARM GAS  /tmp/ccZ9tIjc.s 			page 42


 1284              		.loc 1 674 3 is_stmt 1 view .LVU430
 674:Src/eeprom.c  ****   {
 1285              		.loc 1 674 6 is_stmt 0 view .LVU431
 1286 004a 0446     		mov	r4, r0
 1287 004c 10B1     		cbz	r0, .L114
 1288 004e F0E7     		b	.L112
 1289              	.LVL159:
 1290              	.L115:
 680:Src/eeprom.c  ****   {
 1291              		.loc 1 680 40 is_stmt 1 discriminator 2 view .LVU432
 680:Src/eeprom.c  ****   {
 1292              		.loc 1 680 46 is_stmt 0 discriminator 2 view .LVU433
 1293 0050 0134     		adds	r4, r4, #1
 1294              	.LVL160:
 680:Src/eeprom.c  ****   {
 1295              		.loc 1 680 46 discriminator 2 view .LVU434
 1296 0052 A4B2     		uxth	r4, r4
 1297              	.LVL161:
 1298              	.L114:
 680:Src/eeprom.c  ****   {
 1299              		.loc 1 680 20 is_stmt 1 discriminator 1 view .LVU435
 680:Src/eeprom.c  ****   {
 1300              		.loc 1 680 3 is_stmt 0 discriminator 1 view .LVU436
 1301 0054 122C     		cmp	r4, #18
 1302 0056 14D8     		bhi	.L123
 682:Src/eeprom.c  ****     {
 1303              		.loc 1 682 5 is_stmt 1 view .LVU437
 682:Src/eeprom.c  ****     {
 1304              		.loc 1 682 22 is_stmt 0 view .LVU438
 1305 0058 1A4B     		ldr	r3, .L125+12
 1306 005a 33F81400 		ldrh	r0, [r3, r4, lsl #1]
 682:Src/eeprom.c  ****     {
 1307              		.loc 1 682 8 view .LVU439
 1308 005e A842     		cmp	r0, r5
 1309 0060 F6D0     		beq	.L115
 685:Src/eeprom.c  ****       /* In case variable corresponding to the virtual address was found */
 1310              		.loc 1 685 7 is_stmt 1 view .LVU440
 685:Src/eeprom.c  ****       /* In case variable corresponding to the virtual address was found */
 1311              		.loc 1 685 20 is_stmt 0 view .LVU441
 1312 0062 1949     		ldr	r1, .L125+16
 1313 0064 FFF7FEFF 		bl	EE_ReadVariable
 1314              	.LVL162:
 687:Src/eeprom.c  ****       {
 1315              		.loc 1 687 7 is_stmt 1 view .LVU442
 687:Src/eeprom.c  ****       {
 1316              		.loc 1 687 10 is_stmt 0 view .LVU443
 1317 0068 0128     		cmp	r0, #1
 1318 006a F1D0     		beq	.L115
 690:Src/eeprom.c  ****         /* If program operation was failed, a Flash error code is returned */
 1319              		.loc 1 690 9 is_stmt 1 view .LVU444
 690:Src/eeprom.c  ****         /* If program operation was failed, a Flash error code is returned */
 1320              		.loc 1 690 24 is_stmt 0 view .LVU445
 1321 006c 164B     		ldr	r3, .L125+16
 1322 006e 1988     		ldrh	r1, [r3]
 1323 0070 144B     		ldr	r3, .L125+12
 1324 0072 33F81400 		ldrh	r0, [r3, r4, lsl #1]
 1325              	.LVL163:
ARM GAS  /tmp/ccZ9tIjc.s 			page 43


 690:Src/eeprom.c  ****         /* If program operation was failed, a Flash error code is returned */
 1326              		.loc 1 690 24 view .LVU446
 1327 0076 FFF7FEFF 		bl	EE_VerifyPageFullWriteVariable
 1328              	.LVL164:
 692:Src/eeprom.c  ****         {
 1329              		.loc 1 692 9 is_stmt 1 view .LVU447
 692:Src/eeprom.c  ****         {
 1330              		.loc 1 692 12 is_stmt 0 view .LVU448
 1331 007a 0028     		cmp	r0, #0
 1332 007c E8D0     		beq	.L115
 694:Src/eeprom.c  ****         }
 1333              		.loc 1 694 18 view .LVU449
 1334 007e 0446     		mov	r4, r0
 1335              	.LVL165:
 694:Src/eeprom.c  ****         }
 1336              		.loc 1 694 18 view .LVU450
 1337 0080 D7E7     		b	.L112
 1338              	.LVL166:
 1339              	.L123:
 700:Src/eeprom.c  ****   s_eraseinit.PageAddress = oldpageid;
 1340              		.loc 1 700 3 is_stmt 1 view .LVU451
 700:Src/eeprom.c  ****   s_eraseinit.PageAddress = oldpageid;
 1341              		.loc 1 700 27 is_stmt 0 view .LVU452
 1342 0082 0023     		movs	r3, #0
 1343 0084 0193     		str	r3, [sp, #4]
 701:Src/eeprom.c  ****   s_eraseinit.NbPages     = 1;
 1344              		.loc 1 701 3 is_stmt 1 view .LVU453
 701:Src/eeprom.c  ****   s_eraseinit.NbPages     = 1;
 1345              		.loc 1 701 27 is_stmt 0 view .LVU454
 1346 0086 CDF80C80 		str	r8, [sp, #12]
 702:Src/eeprom.c  **** 
 1347              		.loc 1 702 3 is_stmt 1 view .LVU455
 702:Src/eeprom.c  **** 
 1348              		.loc 1 702 27 is_stmt 0 view .LVU456
 1349 008a 0123     		movs	r3, #1
 1350 008c 0493     		str	r3, [sp, #16]
 705:Src/eeprom.c  ****   /* If erase operation was failed, a Flash error code is returned */
 1351              		.loc 1 705 3 is_stmt 1 view .LVU457
 705:Src/eeprom.c  ****   /* If erase operation was failed, a Flash error code is returned */
 1352              		.loc 1 705 17 is_stmt 0 view .LVU458
 1353 008e 05A9     		add	r1, sp, #20
 1354 0090 01A8     		add	r0, sp, #4
 1355 0092 FFF7FEFF 		bl	HAL_FLASHEx_Erase
 1356              	.LVL167:
 707:Src/eeprom.c  ****   {
 1357              		.loc 1 707 3 is_stmt 1 view .LVU459
 707:Src/eeprom.c  ****   {
 1358              		.loc 1 707 6 is_stmt 0 view .LVU460
 1359 0096 08B1     		cbz	r0, .L117
 709:Src/eeprom.c  ****   }
 1360              		.loc 1 709 5 is_stmt 1 view .LVU461
 709:Src/eeprom.c  ****   }
 1361              		.loc 1 709 12 is_stmt 0 view .LVU462
 1362 0098 84B2     		uxth	r4, r0
 1363              	.LVL168:
 709:Src/eeprom.c  ****   }
 1364              		.loc 1 709 12 view .LVU463
ARM GAS  /tmp/ccZ9tIjc.s 			page 44


 1365 009a CAE7     		b	.L112
 1366              	.LVL169:
 1367              	.L117:
 713:Src/eeprom.c  ****   /* If program operation was failed, a Flash error code is returned */
 1368              		.loc 1 713 3 is_stmt 1 view .LVU464
 713:Src/eeprom.c  ****   /* If program operation was failed, a Flash error code is returned */
 1369              		.loc 1 713 17 is_stmt 0 view .LVU465
 1370 009c 0022     		movs	r2, #0
 1371 009e 0023     		movs	r3, #0
 1372 00a0 3946     		mov	r1, r7
 1373 00a2 0120     		movs	r0, #1
 1374              	.LVL170:
 713:Src/eeprom.c  ****   /* If program operation was failed, a Flash error code is returned */
 1375              		.loc 1 713 17 view .LVU466
 1376 00a4 FFF7FEFF 		bl	HAL_FLASH_Program
 1377              	.LVL171:
 715:Src/eeprom.c  ****   {
 1378              		.loc 1 715 3 is_stmt 1 view .LVU467
 715:Src/eeprom.c  ****   {
 1379              		.loc 1 715 6 is_stmt 0 view .LVU468
 1380 00a8 08B9     		cbnz	r0, .L124
 723:Src/eeprom.c  **** }
 1381              		.loc 1 723 3 is_stmt 1 view .LVU469
 723:Src/eeprom.c  **** }
 1382              		.loc 1 723 10 is_stmt 0 view .LVU470
 1383 00aa 84B2     		uxth	r4, r0
 1384              	.LVL172:
 723:Src/eeprom.c  **** }
 1385              		.loc 1 723 10 view .LVU471
 1386 00ac C1E7     		b	.L112
 1387              	.LVL173:
 1388              	.L124:
 717:Src/eeprom.c  ****   }
 1389              		.loc 1 717 5 is_stmt 1 view .LVU472
 717:Src/eeprom.c  ****   }
 1390              		.loc 1 717 12 is_stmt 0 view .LVU473
 1391 00ae 84B2     		uxth	r4, r0
 1392              	.LVL174:
 717:Src/eeprom.c  ****   }
 1393              		.loc 1 717 12 view .LVU474
 1394 00b0 BFE7     		b	.L112
 1395              	.LVL175:
 1396              	.L120:
 660:Src/eeprom.c  ****   }
 1397              		.loc 1 660 12 view .LVU475
 1398 00b2 AB24     		movs	r4, #171
 1399 00b4 BDE7     		b	.L112
 1400              	.L126:
 1401 00b6 00BF     		.align	2
 1402              	.L125:
 1403 00b8 00000108 		.word	134283264
 1404 00bc 00000208 		.word	134348800
 1405 00c0 00800108 		.word	134316032
 1406 00c4 00000000 		.word	VirtAddVarTab
 1407 00c8 00000000 		.word	.LANCHOR0
 1408              		.cfi_endproc
 1409              	.LFE73:
ARM GAS  /tmp/ccZ9tIjc.s 			page 45


 1411              		.section	.text.EE_WriteVariable,"ax",%progbits
 1412              		.align	1
 1413              		.global	EE_WriteVariable
 1414              		.syntax unified
 1415              		.thumb
 1416              		.thumb_func
 1417              		.fpu softvfp
 1419              	EE_WriteVariable:
 1420              	.LVL176:
 1421              	.LFB69:
 422:Src/eeprom.c  ****   uint16_t Status = 0;
 1422              		.loc 1 422 1 is_stmt 1 view -0
 1423              		.cfi_startproc
 1424              		@ args = 0, pretend = 0, frame = 0
 1425              		@ frame_needed = 0, uses_anonymous_args = 0
 422:Src/eeprom.c  ****   uint16_t Status = 0;
 1426              		.loc 1 422 1 is_stmt 0 view .LVU477
 1427 0000 38B5     		push	{r3, r4, r5, lr}
 1428              	.LCFI14:
 1429              		.cfi_def_cfa_offset 16
 1430              		.cfi_offset 3, -16
 1431              		.cfi_offset 4, -12
 1432              		.cfi_offset 5, -8
 1433              		.cfi_offset 14, -4
 1434 0002 0446     		mov	r4, r0
 1435 0004 0D46     		mov	r5, r1
 423:Src/eeprom.c  **** 
 1436              		.loc 1 423 3 is_stmt 1 view .LVU478
 1437              	.LVL177:
 426:Src/eeprom.c  **** 
 1438              		.loc 1 426 3 view .LVU479
 426:Src/eeprom.c  **** 
 1439              		.loc 1 426 12 is_stmt 0 view .LVU480
 1440 0006 FFF7FEFF 		bl	EE_VerifyPageFullWriteVariable
 1441              	.LVL178:
 429:Src/eeprom.c  ****   {
 1442              		.loc 1 429 3 is_stmt 1 view .LVU481
 429:Src/eeprom.c  ****   {
 1443              		.loc 1 429 6 is_stmt 0 view .LVU482
 1444 000a 8028     		cmp	r0, #128
 1445 000c 00D0     		beq	.L130
 1446              	.L128:
 436:Src/eeprom.c  **** }
 1447              		.loc 1 436 3 is_stmt 1 view .LVU483
 437:Src/eeprom.c  **** 
 1448              		.loc 1 437 1 is_stmt 0 view .LVU484
 1449 000e 38BD     		pop	{r3, r4, r5, pc}
 1450              	.L130:
 432:Src/eeprom.c  ****   }
 1451              		.loc 1 432 5 is_stmt 1 view .LVU485
 432:Src/eeprom.c  ****   }
 1452              		.loc 1 432 14 is_stmt 0 view .LVU486
 1453 0010 2946     		mov	r1, r5
 1454 0012 2046     		mov	r0, r4
 1455              	.LVL179:
 432:Src/eeprom.c  ****   }
 1456              		.loc 1 432 14 view .LVU487
ARM GAS  /tmp/ccZ9tIjc.s 			page 46


 1457 0014 FFF7FEFF 		bl	EE_PageTransfer
 1458              	.LVL180:
 432:Src/eeprom.c  ****   }
 1459              		.loc 1 432 14 view .LVU488
 1460 0018 F9E7     		b	.L128
 1461              		.cfi_endproc
 1462              	.LFE69:
 1464              		.global	DataVar
 1465              		.section	.bss.DataVar,"aw",%nobits
 1466              		.align	1
 1467              		.set	.LANCHOR0,. + 0
 1470              	DataVar:
 1471 0000 0000     		.space	2
 1472              		.text
 1473              	.Letext0:
 1474              		.file 2 "/usr/lib/gcc/arm-none-eabi/10.3.1/include/stdint.h"
 1475              		.file 3 "Drivers/STM32F1xx_HAL_Driver/Inc/stm32f1xx_hal_def.h"
 1476              		.file 4 "Drivers/STM32F1xx_HAL_Driver/Inc/stm32f1xx_hal_flash_ex.h"
 1477              		.file 5 "Drivers/STM32F1xx_HAL_Driver/Inc/stm32f1xx_hal_flash.h"
ARM GAS  /tmp/ccZ9tIjc.s 			page 47

